	.cpu cortex-m4
	.eabi_attribute 27, 1
	.eabi_attribute 28, 1
	.eabi_attribute 20, 1
	.eabi_attribute 21, 1
	.eabi_attribute 23, 3
	.eabi_attribute 24, 1
	.eabi_attribute 25, 1
	.eabi_attribute 26, 1
	.eabi_attribute 30, 4
	.eabi_attribute 34, 1
	.eabi_attribute 18, 4
	.file	"LoRaMac.c"
	.text
.Ltext0:
	.section	.text.ValidatePayloadLength,"ax",%progbits
	.align	1
	.syntax unified
	.thumb
	.thumb_func
	.fpu fpv4-sp-d16
	.type	ValidatePayloadLength, %function
ValidatePayloadLength:
.LFB13:
	.file 1 "/Users/russ/nRF5_SDK_15.2.0_9412b96/examples/ble_peripheral/flightSketch/lora/mac/LoRaMac.c"
	.loc 1 1568 0
	@ args = 0, pretend = 0, frame = 8
	@ frame_needed = 0, uses_anonymous_args = 0
.LVL0:
	push	{r0, r1, r2, r4, r5, lr}
.LCFI0:
	.loc 1 1575 0
	ldr	r3, .L8
	.loc 1 1576 0
	strb	r1, [sp, #5]
	.loc 1 1575 0
	ldrb	r3, [r3, #44]	@ zero_extendqisi2
	strb	r3, [sp, #6]
	.loc 1 1577 0
	movs	r3, #9
	strb	r3, [sp, #4]
	.loc 1 1580 0
	ldr	r3, .L8+4
	ldrb	r3, [r3]	@ zero_extendqisi2
	.loc 1 1568 0
	mov	r4, r0
	mov	r5, r2
	.loc 1 1580 0
	cbz	r3, .L2
	.loc 1 1582 0
	movs	r3, #10
	strb	r3, [sp, #4]
.L2:
	.loc 1 1584 0
	ldr	r3, .L8+8
	add	r1, sp, #4
.LVL1:
	ldrb	r0, [r3]	@ zero_extendqisi2
.LVL2:
	bl	RegionGetPhyParam
.LVL3:
	.loc 1 1588 0
	adds	r2, r4, r5
.LVL4:
	.loc 1 1591 0
	uxth	r0, r0
.LVL5:
	cmp	r0, r2
	bcc	.L4
	.loc 1 1591 0 is_stmt 0 discriminator 1
	cmp	r2, #255
	ite	hi
	movhi	r0, #0
.LVL6:
	movls	r0, #1
.L3:
	.loc 1 1596 0 is_stmt 1
	add	sp, sp, #12
.LCFI1:
	@ sp needed
	pop	{r4, r5, pc}
.LVL7:
.L4:
.LCFI2:
	.loc 1 1595 0
	movs	r0, #0
.LVL8:
	b	.L3
.L9:
	.align	2
.L8:
	.word	.LANCHOR0
	.word	.LANCHOR1
	.word	.LANCHOR2
.LFE13:
	.size	ValidatePayloadLength, .-ValidatePayloadLength
	.section	.text.ResetMacParameters,"ax",%progbits
	.align	1
	.syntax unified
	.thumb
	.thumb_func
	.fpu fpv4-sp-d16
	.type	ResetMacParameters, %function
ResetMacParameters:
.LFB22:
	.loc 1 2084 0
	@ args = 0, pretend = 0, frame = 0
	@ frame_needed = 0, uses_anonymous_args = 0
	push	{r3, r4, r5, lr}
.LCFI3:
	.loc 1 2085 0
	ldr	r3, .L13
	.loc 1 2094 0
	ldr	r2, .L13+4
	.loc 1 2085 0
	movs	r4, #0
	strb	r4, [r3]
	.loc 1 2088 0
	ldr	r3, .L13+8
	str	r4, [r3]
	.loc 1 2089 0
	ldr	r3, .L13+12
	str	r4, [r3]
	.loc 1 2090 0
	ldr	r3, .L13+16
	str	r4, [r3]
	.loc 1 2092 0
	ldr	r3, .L13+20
	strb	r4, [r3]
	.loc 1 2094 0
	movs	r3, #1
	strb	r3, [r2]
	.loc 1 2095 0
	ldr	r2, .L13+24
	strb	r3, [r2]
	.loc 1 2096 0
	ldr	r2, .L13+28
	strb	r4, [r2]
	.loc 1 2098 0
	ldr	r2, .L13+32
	strb	r4, [r2]
	.loc 1 2099 0
	ldr	r2, .L13+36
	strh	r3, [r2]	@ movhi
	.loc 1 2101 0
	ldr	r2, .L13+40
	strb	r4, [r2]
	.loc 1 2102 0
	ldr	r2, .L13+44
	strb	r4, [r2]
	.loc 1 2104 0
	ldr	r2, .L13+48
	strb	r3, [r2]
	.loc 1 2106 0
	ldr	r2, .L13+52
	ldr	r3, .L13+56
	ldrb	r1, [r2]	@ zero_extendqisi2
	strb	r1, [r3]
	.loc 1 2107 0
	ldrb	r1, [r2, #1]	@ zero_extendqisi2
	strb	r1, [r3, #1]
	.loc 1 2108 0
	ldrb	r1, [r2, #33]	@ zero_extendqisi2
	strb	r1, [r3, #33]
	.loc 1 2109 0
	add	r1, r2, #36
	ldm	r1, {r0, r1}
	add	r5, r3, #36
	stm	r5, {r0, r1}
	.loc 1 2110 0
	ldrb	r1, [r2, #44]	@ zero_extendqisi2
	strb	r1, [r3, #44]
	.loc 1 2111 0
	ldrb	r1, [r2, #45]	@ zero_extendqisi2
	strb	r1, [r3, #45]
	.loc 1 2112 0
	ldr	r1, [r2, #48]	@ float
	.loc 1 2113 0
	ldr	r2, [r2, #52]	@ float
	.loc 1 2112 0
	str	r1, [r3, #48]	@ float
	.loc 1 2113 0
	str	r2, [r3, #52]	@ float
	.loc 1 2116 0
	ldr	r3, .L13+60
	movs	r1, #2
	ldrb	r0, [r3]	@ zero_extendqisi2
	bl	RegionInitDefaults
.LVL9:
	.loc 1 2118 0
	ldr	r3, .L13+64
	strb	r4, [r3]
	.loc 1 2119 0
	ldr	r3, .L13+68
	strb	r4, [r3]
	.loc 1 2120 0
	ldr	r3, .L13+72
	strb	r4, [r3]
	.loc 1 2123 0
	ldr	r3, .L13+76
	ldr	r3, [r3]
.LVL10:
.L11:
	.loc 1 2124 0
	cbnz	r3, .L12
	.loc 1 2131 0
	ldr	r2, .L13+80
	strb	r3, [r2]
	.loc 1 2132 0
	ldr	r2, .L13+84
	strb	r3, [r2]
	.loc 1 2133 0
	pop	{r3, r4, r5, pc}
.LVL11:
.L12:
	.loc 1 2126 0
	str	r4, [r3, #36]
	.loc 1 2127 0
	ldr	r3, [r3, #40]
.LVL12:
	b	.L11
.L14:
	.align	2
.L13:
	.word	.LANCHOR3
	.word	.LANCHOR8
	.word	.LANCHOR4
	.word	.LANCHOR5
	.word	.LANCHOR6
	.word	.LANCHOR7
	.word	.LANCHOR9
	.word	.LANCHOR10
	.word	.LANCHOR11
	.word	.LANCHOR12
	.word	.LANCHOR13
	.word	.LANCHOR14
	.word	.LANCHOR15
	.word	.LANCHOR16
	.word	.LANCHOR0
	.word	.LANCHOR2
	.word	.LANCHOR17
	.word	.LANCHOR18
	.word	.LANCHOR19
	.word	.LANCHOR20
	.word	.LANCHOR21
	.word	.LANCHOR22
.LFE22:
	.size	ResetMacParameters, .-ResetMacParameters
	.section	.text.OnAckTimeoutTimerEvent,"ax",%progbits
	.align	1
	.syntax unified
	.thumb
	.thumb_func
	.fpu fpv4-sp-d16
	.type	OnAckTimeoutTimerEvent, %function
OnAckTimeoutTimerEvent:
.LFB11:
	.loc 1 1541 0
	@ args = 0, pretend = 0, frame = 0
	@ frame_needed = 0, uses_anonymous_args = 0
	push	{r3, lr}
.LCFI4:
	.loc 1 1542 0
	ldr	r0, .L21
	bl	TimerStop
.LVL13:
	.loc 1 1544 0
	ldr	r3, .L21+4
	ldrb	r3, [r3]	@ zero_extendqisi2
	cbz	r3, .L16
	.loc 1 1546 0
	ldr	r3, .L21+8
	movs	r2, #1
	strb	r2, [r3]
	.loc 1 1547 0
	ldr	r2, .L21+12
	ldr	r3, [r2]
	bic	r3, r3, #4
	str	r3, [r2]
.L16:
	.loc 1 1549 0
	ldr	r3, .L21+16
	ldrb	r3, [r3]	@ zero_extendqisi2
	cmp	r3, #2
	.loc 1 1551 0
	itttt	eq
	ldreq	r2, .L21+20
	ldrbeq	r3, [r2]	@ zero_extendqisi2
	orreq	r3, r3, #32
	strbeq	r3, [r2]
	.loc 1 1553 0
	pop	{r3, pc}
.L22:
	.align	2
.L21:
	.word	.LANCHOR23
	.word	.LANCHOR17
	.word	.LANCHOR10
	.word	.LANCHOR24
	.word	.LANCHOR25
	.word	.LANCHOR26
.LFE11:
	.size	OnAckTimeoutTimerEvent, .-OnAckTimeoutTimerEvent
	.section	.text.PrepareRxDoneAbort,"ax",%progbits
	.align	1
	.syntax unified
	.thumb
	.thumb_func
	.fpu fpv4-sp-d16
	.type	PrepareRxDoneAbort, %function
PrepareRxDoneAbort:
.LFB1:
	.loc 1 723 0
	@ args = 0, pretend = 0, frame = 0
	@ frame_needed = 0, uses_anonymous_args = 0
	.loc 1 724 0
	ldr	r2, .L28
	.loc 1 723 0
	push	{r3, lr}
.LCFI5:
	.loc 1 724 0
	ldr	r3, [r2]
	orr	r3, r3, #64
	str	r3, [r2]
	.loc 1 726 0
	ldr	r3, .L28+4
	ldrb	r3, [r3]	@ zero_extendqisi2
	cbz	r3, .L24
	.loc 1 728 0
	bl	OnAckTimeoutTimerEvent
.LVL14:
.L24:
	.loc 1 731 0
	ldr	r2, .L28+8
	.loc 1 735 0
	ldr	r0, .L28+12
	.loc 1 731 0
	ldrb	r3, [r2]	@ zero_extendqisi2
	.loc 1 735 0
	movs	r1, #1
	.loc 1 732 0
	orr	r3, r3, #34
	strb	r3, [r2]
	.loc 1 735 0
	bl	TimerSetValue
.LVL15:
	.loc 1 736 0
	ldr	r0, .L28+12
	.loc 1 737 0
	pop	{r3, lr}
.LCFI6:
	.loc 1 736 0
	b	TimerStart
.LVL16:
.L29:
	.align	2
.L28:
	.word	.LANCHOR24
	.word	.LANCHOR17
	.word	.LANCHOR26
	.word	.LANCHOR27
.LFE1:
	.size	PrepareRxDoneAbort, .-PrepareRxDoneAbort
	.section	.text.OnRxWindow1TimerEvent,"ax",%progbits
	.align	1
	.syntax unified
	.thumb
	.thumb_func
	.fpu fpv4-sp-d16
	.type	OnRxWindow1TimerEvent, %function
OnRxWindow1TimerEvent:
.LFB8:
	.loc 1 1458 0
	@ args = 0, pretend = 0, frame = 0
	@ frame_needed = 0, uses_anonymous_args = 0
	push	{r4, r5, r6, lr}
.LCFI7:
	.loc 1 1459 0
	ldr	r0, .L34
	.loc 1 1462 0
	ldr	r4, .L34+4
	.loc 1 1463 0
	ldr	r5, .L34+8
	ldr	r6, .L34+12
	.loc 1 1459 0
	bl	TimerStop
.LVL17:
	.loc 1 1460 0
	ldr	r3, .L34+16
	.loc 1 1463 0
	ldrb	r0, [r5, #33]	@ zero_extendqisi2
	strb	r0, [r4, #3]
	.loc 1 1460 0
	movs	r1, #0
	strb	r1, [r3]
	.loc 1 1466 0
	strb	r1, [r4, #18]
	.loc 1 1467 0
	strb	r1, [r4, #19]
	.loc 1 1469 0
	ldr	r1, .L34+20
	.loc 1 1464 0
	ldrb	r0, [r5, #45]	@ zero_extendqisi2
	.loc 1 1462 0
	ldr	r2, .L34+24
	.loc 1 1464 0
	strb	r0, [r4, #16]
	.loc 1 1469 0
	ldrb	r1, [r1]	@ zero_extendqisi2
	.loc 1 1465 0
	ldr	r0, .L34+28
	.loc 1 1462 0
	ldrb	r2, [r2]	@ zero_extendqisi2
	.loc 1 1465 0
	ldrb	r0, [r0]	@ zero_extendqisi2
	.loc 1 1462 0
	strb	r2, [r4]
	.loc 1 1469 0
	cmp	r1, #2
	.loc 1 1465 0
	strb	r0, [r4, #17]
	.loc 1 1469 0
	bne	.L31
	.loc 1 1471 0
	ldr	r3, [r6, #48]
	blx	r3
.LVL18:
.L31:
	.loc 1 1474 0
	ldr	r3, .L34+32
	ldr	r2, .L34+36
	ldrb	r0, [r3]	@ zero_extendqisi2
	ldr	r1, .L34+4
	bl	RegionRxConfig
.LVL19:
.LBB8:
.LBB9:
	.loc 1 1557 0
	ldrb	r2, [r4, #18]	@ zero_extendqisi2
	ldr	r3, [r6, #52]
	cbnz	r2, .L32
.LVL20:
.LBB10:
.LBB11:
	.loc 1 1559 0
	ldr	r0, [r5, #12]
.LVL21:
.L33:
.LBE11:
.LBE10:
.LBE9:
.LBE8:
	.loc 1 1476 0
	pop	{r4, r5, r6, lr}
.LCFI8:
.LBB13:
.LBB12:
	.loc 1 1563 0
	bx	r3	@ indirect register sibling call
.LVL22:
.L32:
.LCFI9:
	movs	r0, #0
	b	.L33
.L35:
	.align	2
.L34:
	.word	.LANCHOR28
	.word	.LANCHOR30
	.word	.LANCHOR0
	.word	Radio
	.word	.LANCHOR29
	.word	.LANCHOR25
	.word	.LANCHOR21
	.word	.LANCHOR1
	.word	.LANCHOR2
	.word	.LANCHOR31+4
.LBE12:
.LBE13:
.LFE8:
	.size	OnRxWindow1TimerEvent, .-OnRxWindow1TimerEvent
	.section	.text.OnRxWindow2TimerEvent,"ax",%progbits
	.align	1
	.syntax unified
	.thumb
	.thumb_func
	.fpu fpv4-sp-d16
	.type	OnRxWindow2TimerEvent, %function
OnRxWindow2TimerEvent:
.LFB9:
	.loc 1 1479 0
	@ args = 0, pretend = 0, frame = 0
	@ frame_needed = 0, uses_anonymous_args = 0
	push	{r3, r4, r5, lr}
.LCFI10:
	.loc 1 1480 0
	ldr	r0, .L46
	.loc 1 1483 0
	ldr	r5, .L46+4
	.loc 1 1482 0
	ldr	r4, .L46+8
	.loc 1 1480 0
	bl	TimerStop
.LVL23:
	.loc 1 1488 0
	ldr	r0, .L46+12
	.loc 1 1483 0
	ldr	r1, [r5, #36]
	.loc 1 1488 0
	ldrb	r0, [r0]	@ zero_extendqisi2
	.loc 1 1483 0
	str	r1, [r4, #4]
	.loc 1 1484 0
	ldrb	r1, [r5, #45]	@ zero_extendqisi2
	strb	r1, [r4, #16]
	.loc 1 1488 0
	cmp	r0, #2
	.loc 1 1485 0
	ldr	r1, .L46+16
	.loc 1 1482 0
	ldr	r2, .L46+20
	.loc 1 1485 0
	ldrb	r1, [r1]	@ zero_extendqisi2
	.loc 1 1482 0
	ldrb	r2, [r2]	@ zero_extendqisi2
	.loc 1 1485 0
	strb	r1, [r4, #17]
	.loc 1 1490 0
	itt	ne
	movne	r3, #0
	strbne	r3, [r4, #18]
	.loc 1 1498 0
	ldr	r3, .L46+24
	.loc 1 1482 0
	strb	r2, [r4]
	.loc 1 1486 0
	mov	r1, #1
	.loc 1 1495 0
	it	eq
	strbeq	r1, [r4, #18]
	.loc 1 1486 0
	strb	r1, [r4, #19]
	.loc 1 1498 0
	ldr	r2, .L46+28
	ldr	r1, .L46+8
	ldrb	r0, [r3]	@ zero_extendqisi2
	bl	RegionRxConfig
.LVL24:
	cbz	r0, .L36
.LVL25:
	ldr	r3, .L46+32
.LBB20:
.LBB21:
.LBB22:
.LBB23:
	.loc 1 1557 0
	ldrb	r2, [r4, #18]	@ zero_extendqisi2
	ldr	r3, [r3, #52]
	cbnz	r2, .L40
.LVL26:
.LBB24:
.LBB25:
	.loc 1 1559 0
	ldr	r0, [r5, #12]
.LVL27:
.L45:
.LBE25:
.LBE24:
	.loc 1 1563 0
	blx	r3
.LVL28:
.LBE23:
.LBE22:
	.loc 1 1501 0
	ldr	r3, .L46+36
	movs	r2, #1
	strb	r2, [r3]
.L36:
.LBE21:
.LBE20:
	.loc 1 1503 0
	pop	{r3, r4, r5, pc}
.LVL29:
.L40:
.LBB29:
.LBB28:
.LBB27:
.LBB26:
	.loc 1 1563 0
	movs	r0, #0
	b	.L45
.L47:
	.align	2
.L46:
	.word	.LANCHOR32
	.word	.LANCHOR0
	.word	.LANCHOR33
	.word	.LANCHOR25
	.word	.LANCHOR1
	.word	.LANCHOR21
	.word	.LANCHOR2
	.word	.LANCHOR31+4
	.word	Radio
	.word	.LANCHOR29
.LBE26:
.LBE27:
.LBE28:
.LBE29:
.LFE9:
	.size	OnRxWindow2TimerEvent, .-OnRxWindow2TimerEvent
	.section	.text.OpenContinuousRx2Window,"ax",%progbits
	.align	1
	.syntax unified
	.thumb
	.thumb_func
	.fpu fpv4-sp-d16
	.type	OpenContinuousRx2Window, %function
OpenContinuousRx2Window:
.LFB24:
	.loc 1 2145 0
	@ args = 0, pretend = 0, frame = 0
	@ frame_needed = 0, uses_anonymous_args = 0
	push	{r3, lr}
.LCFI11:
	.loc 1 2146 0
	bl	OnRxWindow2TimerEvent
.LVL30:
	.loc 1 2147 0
	ldr	r3, .L49
	movs	r2, #2
	strb	r2, [r3]
	.loc 1 2148 0
	pop	{r3, pc}
.L50:
	.align	2
.L49:
	.word	.LANCHOR29
.LFE24:
	.size	OpenContinuousRx2Window, .-OpenContinuousRx2Window
	.section	.text.OnRadioRxTimeout,"ax",%progbits
	.align	1
	.syntax unified
	.thumb
	.thumb_func
	.fpu fpv4-sp-d16
	.type	OnRadioRxTimeout, %function
OnRadioRxTimeout:
.LFB5:
	.loc 1 1203 0
	@ args = 0, pretend = 0, frame = 0
	@ frame_needed = 0, uses_anonymous_args = 0
	push	{r4, lr}
.LCFI12:
	.loc 1 1204 0
	ldr	r4, .L76
	ldrb	r3, [r4]	@ zero_extendqisi2
	cmp	r3, #2
	beq	.L52
	.loc 1 1206 0
	ldr	r3, .L76+4
	ldr	r3, [r3, #44]
	blx	r3
.LVL31:
.L52:
	ldr	r3, .L76+8
	ldrb	r2, [r3]	@ zero_extendqisi2
	.loc 1 1209 0
	ldr	r3, .L76+12
	ldrb	r1, [r3]	@ zero_extendqisi2
	ldr	r3, .L76+16
	cbnz	r1, .L53
	.loc 1 1211 0
	cbz	r2, .L54
	.loc 1 1213 0
	ldr	r2, .L76+20
	movs	r1, #3
	strb	r1, [r2, #1]
.L54:
	.loc 1 1215 0
	movs	r2, #3
	strb	r2, [r3, #1]
	.loc 1 1217 0
	ldrb	r3, [r4]	@ zero_extendqisi2
	cmp	r3, #2
	beq	.L59
	.loc 1 1219 0
	ldr	r3, .L76+24
	ldr	r0, [r3]
	bl	TimerGetElapsedTime
.LVL32:
	ldr	r3, .L76+28
	ldr	r3, [r3]
	cmp	r0, r3
	bcc	.L56
	.loc 1 1221 0
	ldr	r0, .L76+32
	bl	TimerStop
.LVL33:
.L75:
	.loc 1 1236 0
	ldr	r2, .L76+36
	ldrb	r3, [r2]	@ zero_extendqisi2
	orr	r3, r3, #32
	strb	r3, [r2]
.L56:
	.loc 1 1240 0
	ldrb	r3, [r4]	@ zero_extendqisi2
	cmp	r3, #2
	beq	.L59
	.loc 1 1244 0
	pop	{r4, pc}
.L53:
	.loc 1 1228 0
	cbz	r2, .L57
	.loc 1 1230 0
	ldr	r2, .L76+20
	movs	r1, #4
	strb	r1, [r2, #1]
.L57:
	.loc 1 1232 0
	movs	r2, #4
	strb	r2, [r3, #1]
	.loc 1 1234 0
	ldrb	r3, [r4]	@ zero_extendqisi2
	cmp	r3, #2
	bne	.L75
.L59:
	.loc 1 1244 0
	pop	{r4, lr}
.LCFI13:
	.loc 1 1242 0
	b	OpenContinuousRx2Window
.LVL34:
.L77:
	.align	2
.L76:
	.word	.LANCHOR25
	.word	Radio
	.word	.LANCHOR17
	.word	.LANCHOR29
	.word	.LANCHOR35
	.word	.LANCHOR34
	.word	.LANCHOR36
	.word	.LANCHOR37
	.word	.LANCHOR32
	.word	.LANCHOR26
.LFE5:
	.size	OnRadioRxTimeout, .-OnRadioRxTimeout
	.section	.text.OnRadioTxTimeout,"ax",%progbits
	.align	1
	.syntax unified
	.thumb
	.thumb_func
	.fpu fpv4-sp-d16
	.type	OnRadioTxTimeout, %function
OnRadioTxTimeout:
.LFB3:
	.loc 1 1143 0
	@ args = 0, pretend = 0, frame = 0
	@ frame_needed = 0, uses_anonymous_args = 0
	push	{r3, lr}
.LCFI14:
	.loc 1 1144 0
	ldr	r3, .L81
	ldrb	r3, [r3]	@ zero_extendqisi2
	cmp	r3, #2
	beq	.L79
	.loc 1 1146 0
	ldr	r3, .L81+4
	ldr	r3, [r3, #44]
	blx	r3
.LVL35:
.L80:
	.loc 1 1153 0
	ldr	r2, .L81+8
	movs	r3, #2
	strb	r3, [r2, #1]
	.loc 1 1154 0
	ldr	r2, .L81+12
	strb	r3, [r2, #1]
	.loc 1 1155 0
	ldr	r2, .L81+16
	ldrb	r3, [r2]	@ zero_extendqisi2
	orr	r3, r3, #32
	strb	r3, [r2]
	.loc 1 1156 0
	pop	{r3, pc}
.L79:
	.loc 1 1150 0
	bl	OpenContinuousRx2Window
.LVL36:
	b	.L80
.L82:
	.align	2
.L81:
	.word	.LANCHOR25
	.word	Radio
	.word	.LANCHOR34
	.word	.LANCHOR35
	.word	.LANCHOR26
.LFE3:
	.size	OnRadioTxTimeout, .-OnRadioTxTimeout
	.section	.text.OnRadioRxError,"ax",%progbits
	.align	1
	.syntax unified
	.thumb
	.thumb_func
	.fpu fpv4-sp-d16
	.type	OnRadioRxError, %function
OnRadioRxError:
.LFB4:
	.loc 1 1159 0
	@ args = 0, pretend = 0, frame = 0
	@ frame_needed = 0, uses_anonymous_args = 0
	push	{r4, lr}
.LCFI15:
	.loc 1 1160 0
	ldr	r4, .L108
	ldrb	r3, [r4]	@ zero_extendqisi2
	cmp	r3, #2
	beq	.L84
	.loc 1 1162 0
	ldr	r3, .L108+4
	ldr	r3, [r3, #44]
	blx	r3
.LVL37:
.L84:
	ldr	r3, .L108+8
	ldrb	r2, [r3]	@ zero_extendqisi2
	.loc 1 1165 0
	ldr	r3, .L108+12
	ldrb	r1, [r3]	@ zero_extendqisi2
	ldr	r3, .L108+16
	cbnz	r1, .L85
	.loc 1 1167 0
	cbz	r2, .L86
	.loc 1 1169 0
	ldr	r2, .L108+20
	movs	r1, #5
	strb	r1, [r2, #1]
.L86:
	.loc 1 1171 0
	movs	r2, #5
	strb	r2, [r3, #1]
	.loc 1 1173 0
	ldrb	r3, [r4]	@ zero_extendqisi2
	cmp	r3, #2
	beq	.L91
	.loc 1 1175 0
	ldr	r3, .L108+24
	ldr	r0, [r3]
	bl	TimerGetElapsedTime
.LVL38:
	ldr	r3, .L108+28
	ldr	r3, [r3]
	cmp	r0, r3
	bcc	.L88
	.loc 1 1177 0
	ldr	r0, .L108+32
	bl	TimerStop
.LVL39:
.L107:
	.loc 1 1192 0
	ldr	r2, .L108+36
	ldrb	r3, [r2]	@ zero_extendqisi2
	orr	r3, r3, #32
	strb	r3, [r2]
.L88:
	.loc 1 1196 0
	ldrb	r3, [r4]	@ zero_extendqisi2
	cmp	r3, #2
	beq	.L91
	.loc 1 1200 0
	pop	{r4, pc}
.L85:
	.loc 1 1184 0
	cbz	r2, .L89
	.loc 1 1186 0
	ldr	r2, .L108+20
	movs	r1, #6
	strb	r1, [r2, #1]
.L89:
	.loc 1 1188 0
	movs	r2, #6
	strb	r2, [r3, #1]
	.loc 1 1190 0
	ldrb	r3, [r4]	@ zero_extendqisi2
	cmp	r3, #2
	bne	.L107
.L91:
	.loc 1 1200 0
	pop	{r4, lr}
.LCFI16:
	.loc 1 1198 0
	b	OpenContinuousRx2Window
.LVL40:
.L109:
	.align	2
.L108:
	.word	.LANCHOR25
	.word	Radio
	.word	.LANCHOR17
	.word	.LANCHOR29
	.word	.LANCHOR35
	.word	.LANCHOR34
	.word	.LANCHOR36
	.word	.LANCHOR37
	.word	.LANCHOR32
	.word	.LANCHOR26
.LFE4:
	.size	OnRadioRxError, .-OnRadioRxError
	.section	.text.OnRadioTxDone,"ax",%progbits
	.align	1
	.syntax unified
	.thumb
	.thumb_func
	.fpu fpv4-sp-d16
	.type	OnRadioTxDone, %function
OnRadioTxDone:
.LFB0:
	.loc 1 650 0
	@ args = 0, pretend = 0, frame = 16
	@ frame_needed = 0, uses_anonymous_args = 0
	push	{r0, r1, r2, r3, r4, r5, r6, r7, r8, lr}
.LCFI17:
	.loc 1 656 0
	ldr	r5, .L134
	.loc 1 654 0
	bl	TimerGetCurrentTime
.LVL41:
	.loc 1 656 0
	ldrb	r3, [r5]	@ zero_extendqisi2
	cmp	r3, #2
	.loc 1 654 0
	mov	r7, r0
.LVL42:
	.loc 1 656 0
	beq	.L111
	.loc 1 658 0
	ldr	r3, .L134+4
	ldr	r3, [r3, #44]
	blx	r3
.LVL43:
.L112:
	.loc 1 666 0
	ldr	r3, .L134+8
	ldr	r6, .L134+12
	ldrb	r3, [r3]	@ zero_extendqisi2
	ldr	r8, .L134+72
	ldr	r4, .L134+16
	cmp	r3, #0
	beq	.L113
	.loc 1 668 0
	ldr	r3, .L134+20
	ldr	r0, .L134+24
	ldr	r1, [r3]
	bl	TimerSetValue
.LVL44:
	.loc 1 669 0
	ldr	r0, .L134+24
	bl	TimerStart
.LVL45:
	.loc 1 670 0
	ldrb	r3, [r5]	@ zero_extendqisi2
	cmp	r3, #2
	beq	.L114
	.loc 1 672 0
	ldr	r3, .L134+28
	ldr	r0, .L134+32
	ldr	r1, [r3]
	bl	TimerSetValue
.LVL46:
	.loc 1 673 0
	ldr	r0, .L134+32
	bl	TimerStart
.LVL47:
.L114:
	.loc 1 675 0
	ldrb	r3, [r5]	@ zero_extendqisi2
	cmp	r3, #2
	beq	.L115
	.loc 1 675 0 is_stmt 0 discriminator 1
	ldrb	r3, [r6]	@ zero_extendqisi2
	cbz	r3, .L116
.L115:
	.loc 1 677 0 is_stmt 1
	add	r1, sp, #16
	movs	r3, #18
	strb	r3, [r1, #-12]!
	.loc 1 678 0
	ldrb	r0, [r8]	@ zero_extendqisi2
	bl	RegionGetPhyParam
.LVL48:
	.loc 1 679 0
	ldr	r3, .L134+28
	ldr	r1, [r3]
	add	r1, r1, r0
	ldr	r0, .L134+36
	bl	TimerSetValue
.LVL49:
	.loc 1 680 0
	ldr	r0, .L134+36
	bl	TimerStart
.LVL50:
.L116:
	.loc 1 696 0
	ldrb	r3, [r4]	@ zero_extendqisi2
	tst	r3, #8
	ldr	r3, .L134+40
	beq	.L118
	.loc 1 696 0 is_stmt 0 discriminator 1
	ldr	r2, .L134+44
	ldrb	r2, [r2]	@ zero_extendqisi2
	cmp	r2, #0
	bne	.L118
	.loc 1 698 0 is_stmt 1
	movs	r2, #1
.L133:
	.loc 1 702 0
	strb	r2, [r3]
	.loc 1 706 0
	ldr	r3, .L134+48
	ldr	r2, .L134+52
	ldrb	r3, [r3]	@ zero_extendqisi2
	strb	r3, [r2]
	.loc 1 708 0
	strb	r3, [sp, #8]
	.loc 1 709 0
	ldr	r3, .L134+56
	.loc 1 711 0
	ldrb	r0, [r8]	@ zero_extendqisi2
	.loc 1 709 0
	ldrb	r3, [r3]	@ zero_extendqisi2
	strb	r3, [sp, #9]
	.loc 1 711 0
	add	r1, sp, #8
	.loc 1 710 0
	str	r7, [sp, #12]
	.loc 1 711 0
	bl	RegionSetBandTxDone
.LVL51:
	.loc 1 713 0
	ldr	r3, .L134+60
	str	r7, [r3]
	.loc 1 715 0
	ldrb	r3, [r6]	@ zero_extendqisi2
	cbnz	r3, .L110
	.loc 1 717 0
	ldr	r2, .L134+64
	strb	r3, [r2, #1]
	.loc 1 718 0
	ldr	r2, .L134+68
	ldrb	r3, [r2]	@ zero_extendqisi2
	adds	r3, r3, #1
	strb	r3, [r2]
.L110:
	.loc 1 720 0
	add	sp, sp, #16
.LCFI18:
	@ sp needed
	pop	{r4, r5, r6, r7, r8, pc}
.LVL52:
.L111:
.LCFI19:
	.loc 1 662 0
	bl	OpenContinuousRx2Window
.LVL53:
	b	.L112
.L113:
	.loc 1 685 0
	ldr	r2, .L134+64
	strb	r3, [r2, #1]
	.loc 1 686 0
	ldr	r3, .L134+44
	movs	r2, #4
	strb	r2, [r3, #1]
	.loc 1 688 0
	ldrb	r3, [r4]	@ zero_extendqisi2
	cbnz	r3, .L117
	.loc 1 690 0
	movs	r3, #1
	strb	r3, [r4]
.L117:
	.loc 1 692 0
	ldrb	r3, [r4]	@ zero_extendqisi2
	orr	r3, r3, #32
	strb	r3, [r4]
	b	.L116
.L118:
	.loc 1 702 0
	movs	r2, #0
	b	.L133
.L135:
	.align	2
.L134:
	.word	.LANCHOR25
	.word	Radio
	.word	.LANCHOR15
	.word	.LANCHOR17
	.word	.LANCHOR26
	.word	.LANCHOR38
	.word	.LANCHOR28
	.word	.LANCHOR37
	.word	.LANCHOR32
	.word	.LANCHOR23
	.word	.LANCHOR39
	.word	.LANCHOR35
	.word	.LANCHOR21
	.word	.LANCHOR22
	.word	.LANCHOR3
	.word	.LANCHOR36
	.word	.LANCHOR34
	.word	.LANCHOR7
	.word	.LANCHOR2
.LFE0:
	.size	OnRadioTxDone, .-OnRadioTxDone
	.section	.text.ProcessMacCommands,"ax",%progbits
	.align	1
	.syntax unified
	.thumb
	.thumb_func
	.fpu fpv4-sp-d16
	.type	ProcessMacCommands, %function
ProcessMacCommands:
.LFB18:
	.loc 1 1773 0
	@ args = 0, pretend = 0, frame = 40
	@ frame_needed = 0, uses_anonymous_args = 0
.LVL54:
	push	{r4, r5, r6, r7, r8, r9, r10, fp, lr}
.LCFI20:
.LBB60:
	.loc 1 1939 0
	ldr	r7, .L182
.LBB61:
.LBB62:
	.loc 1 1697 0
	ldr	r5, .L182+4
.LBE62:
.LBE61:
.LBE60:
	.loc 1 1773 0
	sub	sp, sp, #52
.LCFI21:
	.loc 1 1773 0
	mov	r4, r0
	mov	r10, r1
	mov	r8, r2
	mov	r9, r3
.LVL55:
.L137:
	.loc 1 1776 0
	cmp	r10, r8
	bcc	.L167
.LVL56:
.L136:
	.loc 1 1949 0
	add	sp, sp, #52
.LCFI22:
	@ sp needed
	pop	{r4, r5, r6, r7, r8, r9, r10, fp, pc}
.LVL57:
.L167:
.LCFI23:
	.loc 1 1779 0
	ldrb	r3, [r4, r10]	@ zero_extendqisi2
	add	r6, r10, #1
	subs	r3, r3, #2
	uxtb	r6, r6
.LVL58:
	cmp	r3, #8
	bhi	.L136
	tbh	[pc, r3, lsl #1]
.L140:
	.2byte	(.L139-.L140)/2
	.2byte	(.L141-.L140)/2
	.2byte	(.L142-.L140)/2
	.2byte	(.L143-.L140)/2
	.2byte	(.L144-.L140)/2
	.2byte	(.L145-.L140)/2
	.2byte	(.L146-.L140)/2
	.2byte	(.L147-.L140)/2
	.2byte	(.L148-.L140)/2
	.p2align 1
.L139:
	.loc 1 1782 0
	ldr	r2, .L182+8
	movs	r3, #0
	strb	r3, [r2, #1]
	.loc 1 1783 0
	add	r1, r10, #2
	ldrb	r3, [r4, r6]	@ zero_extendqisi2
	strb	r3, [r2, #8]
	uxtb	r1, r1
.LVL59:
	.loc 1 1784 0
	add	r10, r10, #3
	ldrb	r3, [r4, r1]	@ zero_extendqisi2
	strb	r3, [r2, #9]
	uxtb	r10, r10
.LVL60:
	.loc 1 1785 0
	b	.L137
.LVL61:
.L141:
.LBB77:
	.loc 1 1789 0
	movs	r3, #0
	strb	r3, [sp, #25]
	.loc 1 1790 0
	strb	r3, [sp, #26]
	.loc 1 1791 0
	strb	r3, [sp, #27]
	.loc 1 1792 0
	strb	r3, [sp, #28]
	.loc 1 1795 0
	subs	r3, r6, #1
	add	r3, r3, r4
	str	r3, [sp, #36]
	.loc 1 1796 0
	add	r3, r8, #1
	subs	r3, r3, r6
	strb	r3, [sp, #40]
	.loc 1 1797 0
	ldr	r3, .L182+12
	.loc 1 1798 0
	ldr	r10, .L182+36
	.loc 1 1797 0
	ldrb	r3, [r3]	@ zero_extendqisi2
	strb	r3, [sp, #42]
	.loc 1 1798 0
	ldrb	r3, [r10, #44]	@ zero_extendqisi2
	strb	r3, [sp, #41]
	.loc 1 1799 0
	ldrb	r3, [r10, #1]	@ zero_extendqisi2
	strb	r3, [sp, #43]
	.loc 1 1800 0
	ldrb	r3, [r10]	@ zero_extendqisi2
	strb	r3, [sp, #44]
	.loc 1 1801 0
	ldrb	r3, [r10, #32]	@ zero_extendqisi2
	strb	r3, [sp, #45]
	.loc 1 1804 0
	add	r3, sp, #28
	ldrb	r0, [r7]	@ zero_extendqisi2
	str	r3, [sp, #4]
	add	r3, sp, #27
	str	r3, [sp]
	add	r2, sp, #25
	add	r3, sp, #26
	add	r1, sp, #36
	bl	RegionLinkAdrReq
.LVL62:
	.loc 1 1807 0
	and	r3, r0, #7
	cmp	r3, #7
	bne	.L150
	.loc 1 1809 0
	ldrb	r3, [sp, #25]	@ zero_extendqisi2
	strb	r3, [r10, #1]
	.loc 1 1810 0
	ldrb	r3, [sp, #26]	@ zero_extendqisi2
	strb	r3, [r10]
	.loc 1 1811 0
	ldrb	r3, [sp, #27]	@ zero_extendqisi2
	strb	r3, [r10, #32]
.L150:
.LBB78:
.LBB79:
.LBB80:
	.loc 1 1618 0 discriminator 1
	ldr	r1, .L182+16
.LBE80:
.LBE79:
	.loc 1 1815 0 discriminator 1
	ldrb	r3, [sp, #28]	@ zero_extendqisi2
.LBB86:
.LBB81:
	.loc 1 1618 0 discriminator 1
	ldrb	r1, [r1]	@ zero_extendqisi2
	.loc 1 1633 0 discriminator 1
	ldr	r10, .L182+32
.LBE81:
.LBE86:
	.loc 1 1815 0 discriminator 1
	str	r3, [sp, #12]
.LBB87:
.LBB82:
	.loc 1 1618 0 discriminator 1
	rsb	r1, r1, #128
	.loc 1 1631 0 discriminator 1
	uxtb	r1, r1
	subs	r1, r1, #1
	str	r1, [sp, #20]
	ldr	r1, .L182+20
.LBE82:
.LBE87:
	.loc 1 1815 0 discriminator 1
	movs	r2, #5
	ldrb	ip, [r1]	@ zero_extendqisi2
	udiv	r2, r3, r2
.LBB88:
.LBB83:
	.loc 1 1631 0 discriminator 1
	movs	r1, #0
.LBE83:
.LBE88:
	.loc 1 1815 0 discriminator 1
	str	r2, [sp, #16]
	ldrb	r2, [r5]	@ zero_extendqisi2
.LBB89:
.LBB84:
	.loc 1 1631 0 discriminator 1
	mov	lr, r1
.L151:
.LVL63:
.LBE84:
.LBE89:
	.loc 1 1815 0 discriminator 1
	ldr	r3, [sp, #16]
	uxtb	fp, r1
	cmp	r3, fp
	bhi	.L153
	cmp	lr, #0
	beq	.L154
	strb	r2, [r5]
	ldr	r2, .L182+20
	strb	ip, [r2]
.L154:
.LBE78:
	.loc 1 1820 0
	ldr	r3, [sp, #12]
	subs	r3, r3, #1
	add	r6, r6, r3
.LVL64:
	uxtb	r10, r6
.LVL65:
.LBE77:
	.loc 1 1822 0
	b	.L137
.LVL66:
.L153:
.LBB92:
.LBB91:
.LBB90:
.LBB85:
	.loc 1 1631 0
	ldr	r3, [sp, #20]
	cmp	r2, r3
	bge	.L152
	.loc 1 1633 0
	add	ip, r2, #1
	uxtb	ip, ip
	mov	r3, #3
	strb	r3, [r10, r2]
	.loc 1 1635 0
	adds	r2, r2, #2
	strb	r0, [r10, ip]
.LVL67:
	.loc 1 1714 0
	mov	ip, #1
	.loc 1 1635 0
	uxtb	r2, r2
	mov	lr, ip
.LVL68:
.L152:
	adds	r1, r1, #1
.LVL69:
	b	.L151
.LVL70:
.L142:
.LBE85:
.LBE90:
.LBE91:
.LBE92:
	.loc 1 1824 0
	ldr	r2, .L182+24
	ldrb	r3, [r4, r6]	@ zero_extendqisi2
	strb	r3, [r2]
	.loc 1 1825 0
	movs	r1, #1
	ldr	r2, .L182+28
	lsl	r3, r1, r3
	strh	r3, [r2]	@ movhi
.LBB93:
.LBB94:
	.loc 1 1618 0
	ldr	r3, .L182+16
	.loc 1 1640 0
	ldrb	r2, [r5]	@ zero_extendqisi2
	.loc 1 1618 0
	ldrb	r3, [r3]	@ zero_extendqisi2
	rsb	r3, r3, #128
	.loc 1 1640 0
	uxtb	r3, r3
.LBE94:
.LBE93:
	.loc 1 1824 0
	add	r10, r10, #2
.LBB97:
.LBB95:
	.loc 1 1640 0
	cmp	r3, r2
.LBE95:
.LBE97:
	.loc 1 1824 0
	uxtb	r10, r10
.LVL71:
.LBB98:
.LBB96:
	.loc 1 1640 0
	bls	.L137
	.loc 1 1642 0
	adds	r3, r2, r1
	strb	r3, [r5]
	ldr	r3, .L182+32
	movs	r0, #4
	strb	r0, [r3, r2]
.LVL72:
	.loc 1 1714 0
	ldr	r3, .L182+20
	strb	r1, [r3]
	b	.L137
.LVL73:
.L143:
.LBE96:
.LBE98:
.LBB99:
	.loc 1 1833 0
	ldrb	r3, [r4, r6]	@ zero_extendqisi2
	ubfx	r2, r3, #4, #3
	.loc 1 1834 0
	and	r3, r3, #15
	.loc 1 1833 0
	strb	r2, [sp, #37]
	.loc 1 1834 0
	strb	r3, [sp, #36]
.LVL74:
	.loc 1 1838 0
	add	r2, r10, #4
	.loc 1 1835 0
	add	r3, r10, #2
	.loc 1 1837 0
	uxtb	r3, r3
	.loc 1 1838 0
	uxtb	r2, r2
.LVL75:
	.loc 1 1837 0
	add	r1, r10, #3
	.loc 1 1838 0
	uxtb	r1, r1
	.loc 1 1837 0
	ldrb	r0, [r4, r3]	@ zero_extendqisi2
	.loc 1 1839 0
	ldrb	r3, [r4, r2]	@ zero_extendqisi2
	.loc 1 1838 0
	ldrb	r1, [r4, r1]	@ zero_extendqisi2
	.loc 1 1839 0
	lsls	r3, r3, #16
	orr	r3, r3, r1, lsl #8
	orrs	r3, r3, r0
	.loc 1 1840 0
	movs	r2, #100
.LVL76:
	muls	r3, r2, r3
	.loc 1 1843 0
	add	r1, sp, #36
	ldrb	r0, [r7]	@ zero_extendqisi2
	.loc 1 1840 0
	str	r3, [sp, #40]
	.loc 1 1843 0
	bl	RegionRxParamSetupReq
.LVL77:
	.loc 1 1845 0
	and	r3, r0, #7
	.loc 1 1839 0
	add	r10, r10, #5
.LVL78:
	.loc 1 1845 0
	cmp	r3, #7
	.loc 1 1839 0
	uxtb	r10, r10
.LVL79:
	.loc 1 1845 0
	bne	.L155
	.loc 1 1847 0
	ldr	r3, .L182+36
	ldrb	r2, [sp, #36]	@ zero_extendqisi2
	strb	r2, [r3, #40]
	.loc 1 1848 0
	ldr	r2, [sp, #40]
	str	r2, [r3, #36]
	.loc 1 1849 0
	ldrb	r2, [sp, #37]	@ zero_extendqisi2
	strb	r2, [r3, #33]
.L155:
.LVL80:
.LBB100:
.LBB101:
	.loc 1 1618 0
	ldr	r2, .L182+16
	.loc 1 1648 0
	ldrb	r3, [r5]	@ zero_extendqisi2
	.loc 1 1618 0
	ldrb	r2, [r2]	@ zero_extendqisi2
	rsb	r2, r2, #128
	.loc 1 1648 0
	uxtb	r2, r2
	subs	r2, r2, #1
	cmp	r3, r2
	bge	.L137
	.loc 1 1650 0
	ldr	r2, .L182+32
	movs	r1, #5
.LVL81:
.L180:
.LBE101:
.LBE100:
.LBE99:
.LBB102:
.LBB71:
.LBB65:
	.loc 1 1699 0
	strb	r1, [r2, r3]
	.loc 1 1701 0
	adds	r1, r3, #2
	.loc 1 1699 0
	adds	r3, r3, #1
	.loc 1 1701 0
	uxtb	r3, r3
	strb	r1, [r5]
	strb	r0, [r2, r3]
	b	.L181
.LVL82:
.L144:
.LBE65:
.LBE71:
.LBE102:
.LBB103:
	.loc 1 1857 0
	ldr	r3, .L182+40
	ldr	r3, [r3]
	cbz	r3, .L169
	.loc 1 1857 0 is_stmt 0 discriminator 1
	ldr	r3, [r3]
	cbz	r3, .L169
	.loc 1 1859 0 is_stmt 1
	blx	r3
.LVL83:
.L157:
.LBB104:
.LBB105:
	.loc 1 1618 0
	ldr	r2, .L182+16
	.loc 1 1659 0
	ldrb	r3, [r5]	@ zero_extendqisi2
	.loc 1 1618 0
	ldrb	r2, [r2]	@ zero_extendqisi2
	rsb	r2, r2, #128
	.loc 1 1659 0
	uxtb	r2, r2
	subs	r2, r2, #2
	cmp	r3, r2
	bge	.L170
	.loc 1 1661 0
	ldr	r2, .L182+32
	movs	r1, #6
	strb	r1, [r2, r3]
	adds	r1, r3, #1
	.loc 1 1664 0
	uxtb	r1, r1
	strb	r0, [r2, r1]
	.loc 1 1665 0
	adds	r1, r3, #3
	.loc 1 1664 0
	adds	r3, r3, #2
	.loc 1 1665 0
	uxtb	r3, r3
	strb	r1, [r5]
.LBE105:
.LBE104:
	.loc 1 1861 0
	and	r1, r9, #63
.LBB107:
.LBB106:
	.loc 1 1665 0
	strb	r1, [r2, r3]
.LVL84:
	.loc 1 1714 0
	ldr	r3, .L182+20
	movs	r2, #1
	strb	r2, [r3]
.LVL85:
.L170:
.LBE106:
.LBE107:
.LBE103:
	.loc 1 1779 0
	mov	r10, r6
	b	.L137
.LVL86:
.L169:
.LBB108:
	.loc 1 1856 0
	movs	r0, #255
	b	.L157
.LVL87:
.L145:
.LBE108:
.LBB109:
	.loc 1 1870 0
	ldrb	r3, [r4, r6]	@ zero_extendqisi2
	strb	r3, [sp, #32]
	.loc 1 1871 0
	add	r3, sp, #36
	str	r3, [sp, #28]
.LVL88:
	.loc 1 1874 0
	add	r1, r10, #4
	.loc 1 1873 0
	add	r3, r10, #3
	.loc 1 1874 0
	uxtb	r3, r3
	.loc 1 1875 0
	uxtb	r1, r1
	.loc 1 1874 0
	ldrb	r0, [r4, r3]	@ zero_extendqisi2
	.loc 1 1875 0
	ldrb	r3, [r4, r1]	@ zero_extendqisi2
	.loc 1 1870 0
	add	r1, r10, #2
	.loc 1 1873 0
	uxtb	r1, r1
	.loc 1 1875 0
	lsls	r3, r3, #16
	.loc 1 1873 0
	ldrb	r1, [r4, r1]	@ zero_extendqisi2
	.loc 1 1875 0
	orr	r3, r3, r0, lsl #8
	add	r2, r10, #5
	orrs	r3, r3, r1
	.loc 1 1876 0
	movs	r1, #100
	.loc 1 1875 0
	uxtb	r2, r2
.LVL89:
	.loc 1 1876 0
	muls	r3, r1, r3
	str	r3, [sp, #36]
	.loc 1 1877 0
	movs	r3, #0
	str	r3, [sp, #40]
	.loc 1 1880 0
	add	r1, sp, #28
	.loc 1 1878 0
	ldrb	r3, [r4, r2]	@ zero_extendqisi2
	.loc 1 1880 0
	ldrb	r0, [r7]	@ zero_extendqisi2
	.loc 1 1878 0
	strb	r3, [sp, #44]
	.loc 1 1880 0
	bl	RegionNewChannelReq
.LVL90:
.LBB110:
.LBB111:
	.loc 1 1618 0
	ldr	r2, .L182+16
	.loc 1 1670 0
	ldrb	r3, [r5]	@ zero_extendqisi2
	.loc 1 1618 0
	ldrb	r2, [r2]	@ zero_extendqisi2
	rsb	r2, r2, #128
	.loc 1 1670 0
	uxtb	r2, r2
	subs	r2, r2, #1
.LBE111:
.LBE110:
	.loc 1 1878 0
	add	r10, r10, #6
.LVL91:
.LBB114:
.LBB112:
	.loc 1 1670 0
	cmp	r3, r2
.LBE112:
.LBE114:
	.loc 1 1878 0
	uxtb	r10, r10
.LVL92:
.LBB115:
.LBB113:
	.loc 1 1670 0
	bge	.L137
	.loc 1 1672 0
	ldr	r2, .L182+32
	movs	r1, #7
	strb	r1, [r2, r3]
	.loc 1 1674 0
	adds	r1, r3, #2
	.loc 1 1672 0
	adds	r3, r3, #1
	.loc 1 1674 0
	uxtb	r3, r3
	strb	r1, [r5]
	strb	r0, [r2, r3]
.LVL93:
.L179:
.LBE113:
.LBE115:
.LBE109:
.LBB116:
.LBB72:
.LBB66:
	.loc 1 1714 0
	ldr	r3, .L182+20
	movs	r2, #1
	strb	r2, [r3]
.LBE66:
.LBE72:
.LBE116:
	.loc 1 1943 0
	b	.L137
.L183:
	.align	2
.L182:
	.word	.LANCHOR2
	.word	.LANCHOR13
	.word	.LANCHOR35
	.word	.LANCHOR40
	.word	.LANCHOR14
	.word	.LANCHOR19
	.word	.LANCHOR11
	.word	.LANCHOR12
	.word	.LANCHOR41
	.word	.LANCHOR0
	.word	.LANCHOR43
.LVL94:
.L146:
.LBB117:
	.loc 1 1887 0
	ldrb	r3, [r4, r6]	@ zero_extendqisi2
	.loc 1 1891 0
	ands	r2, r3, #15
	it	eq
	moveq	r2, #1
	.loc 1 1893 0
	mov	r3, #1000
	muls	r3, r2, r3
	ldr	r2, .L184
	str	r3, [r2, #16]
	.loc 1 1894 0
	add	r3, r3, #1000
	str	r3, [r2, #20]
.LBB118:
.LBB119:
	.loc 1 1618 0
	ldr	r3, .L184+4
	.loc 1 1679 0
	ldrb	r2, [r5]	@ zero_extendqisi2
	.loc 1 1618 0
	ldrb	r3, [r3]	@ zero_extendqisi2
	rsb	r3, r3, #128
	.loc 1 1679 0
	uxtb	r3, r3
.LBE119:
.LBE118:
	.loc 1 1887 0
	add	r10, r10, #2
.LBB122:
.LBB120:
	.loc 1 1679 0
	cmp	r3, r2
.LBE120:
.LBE122:
	.loc 1 1887 0
	uxtb	r10, r10
.LVL95:
.LBB123:
.LBB121:
	.loc 1 1679 0
	bls	.L137
	.loc 1 1681 0
	adds	r3, r2, #1
	strb	r3, [r5]
	ldr	r3, .L184+8
	movs	r1, #8
	strb	r1, [r3, r2]
.LVL96:
.L181:
.LBE121:
.LBE123:
.LBE117:
.LBB124:
.LBB73:
.LBB67:
.LBB63:
.LBB64:
	.loc 1 1610 0
	ldr	r3, .L184+12
	movs	r2, #4
	strb	r2, [r3]
	.loc 1 1611 0
	ldr	r2, .L184+16
	ldrb	r3, [r2]	@ zero_extendqisi2
	orr	r3, r3, #16
	strb	r3, [r2]
	b	.L179
.LVL97:
.L147:
.LBE64:
.LBE63:
.LBE67:
.LBE73:
.LBE124:
.LBB125:
	.loc 1 1901 0
	ldrb	r3, [r4, r6]	@ zero_extendqisi2
	.loc 1 1917 0
	ldrb	r0, [r7]	@ zero_extendqisi2
	.loc 1 1903 0
	movs	r2, #0
	strb	r2, [sp, #36]
	.loc 1 1906 0
	ands	r2, r3, #32
	.loc 1 1908 0
	it	ne
	movne	r2, #1
	strb	r2, [sp, #37]
	.loc 1 1910 0
	lsls	r2, r3, #27
	.loc 1 1912 0
	it	mi
	movmi	r2, #1
	.loc 1 1914 0
	and	r3, r3, #15
	.loc 1 1917 0
	add	r1, sp, #36
	.loc 1 1912 0
	it	mi
	strbmi	r2, [sp, #36]
	.loc 1 1914 0
	strb	r3, [sp, #38]
	.loc 1 1917 0
	bl	RegionTxParamSetupReq
.LVL98:
	.loc 1 1901 0
	add	r10, r10, #2
	.loc 1 1917 0
	adds	r0, r0, #1
	.loc 1 1901 0
	uxtb	r10, r10
.LVL99:
	.loc 1 1917 0
	beq	.L137
	.loc 1 1920 0
	ldr	r3, .L184
	ldrb	r2, [sp, #36]	@ zero_extendqisi2
	strb	r2, [r3, #44]
	.loc 1 1921 0
	ldrb	r2, [sp, #37]	@ zero_extendqisi2
	strb	r2, [r3, #45]
	.loc 1 1922 0
	ldr	r1, .L184+20
	ldrb	r2, [sp, #38]	@ zero_extendqisi2
	ldrb	r2, [r1, r2]	@ zero_extendqisi2
	vmov	s15, r2	@ int
	vcvt.f32.u32	s15, s15
.LBB126:
.LBB127:
	.loc 1 1689 0
	ldrb	r2, [r5]	@ zero_extendqisi2
.LBE127:
.LBE126:
	.loc 1 1922 0
	vstr.32	s15, [r3, #48]
.LVL100:
.LBB129:
.LBB128:
	.loc 1 1618 0
	ldr	r3, .L184+4
	ldrb	r3, [r3]	@ zero_extendqisi2
	rsb	r3, r3, #128
	.loc 1 1689 0
	uxtb	r3, r3
	cmp	r3, r2
	bls	.L137
	.loc 1 1691 0
	adds	r3, r2, #1
	strb	r3, [r5]
	ldr	r3, .L184+8
	movs	r1, #9
	strb	r1, [r3, r2]
.LVL101:
	b	.L179
.LVL102:
.L148:
.LBE128:
.LBE129:
.LBE125:
.LBB130:
	.loc 1 1933 0
	ldrb	r3, [r4, r6]	@ zero_extendqisi2
	strb	r3, [sp, #36]
.LVL103:
	.loc 1 1935 0
	add	r2, r10, #4
	.loc 1 1933 0
	add	r3, r10, #2
	.loc 1 1934 0
	uxtb	r3, r3
	.loc 1 1935 0
	uxtb	r2, r2
.LVL104:
	.loc 1 1934 0
	add	r1, r10, #3
	.loc 1 1935 0
	uxtb	r1, r1
	.loc 1 1934 0
	ldrb	r0, [r4, r3]	@ zero_extendqisi2
	.loc 1 1936 0
	ldrb	r3, [r4, r2]	@ zero_extendqisi2
	.loc 1 1935 0
	ldrb	r1, [r4, r1]	@ zero_extendqisi2
	.loc 1 1936 0
	lsls	r3, r3, #16
	orr	r3, r3, r1, lsl #8
	.loc 1 1937 0
	movs	r2, #100
.LVL105:
	.loc 1 1936 0
	orrs	r3, r3, r0
	.loc 1 1937 0
	muls	r3, r2, r3
	.loc 1 1939 0
	add	r1, sp, #36
	ldrb	r0, [r7]	@ zero_extendqisi2
	.loc 1 1937 0
	str	r3, [sp, #40]
	.loc 1 1939 0
	bl	RegionDlChannelReq
.LVL106:
.LBB74:
.LBB68:
	.loc 1 1618 0
	ldr	r2, .L184+4
	.loc 1 1697 0
	ldrb	r3, [r5]	@ zero_extendqisi2
	.loc 1 1618 0
	ldrb	r2, [r2]	@ zero_extendqisi2
	rsb	r2, r2, #128
	.loc 1 1697 0
	uxtb	r2, r2
.LBE68:
.LBE74:
	.loc 1 1936 0
	add	r10, r10, #5
.LVL107:
.LBB75:
.LBB69:
	.loc 1 1697 0
	cmp	r2, r3
.LBE69:
.LBE75:
	.loc 1 1936 0
	uxtb	r10, r10
.LVL108:
.LBB76:
.LBB70:
	.loc 1 1697 0
	bls	.L137
	.loc 1 1699 0
	ldr	r2, .L184+8
	movs	r1, #10
	b	.L180
.L185:
	.align	2
.L184:
	.word	.LANCHOR0
	.word	.LANCHOR14
	.word	.LANCHOR41
	.word	.LANCHOR42
	.word	.LANCHOR26
	.word	.LANCHOR44
.LBE70:
.LBE76:
.LBE130:
.LFE18:
	.size	ProcessMacCommands, .-ProcessMacCommands
	.section	.text.OnRadioRxDone,"ax",%progbits
	.align	1
	.syntax unified
	.thumb
	.thumb_func
	.fpu fpv4-sp-d16
	.type	OnRadioRxDone, %function
OnRadioRxDone:
.LFB2:
	.loc 1 740 0
	@ args = 0, pretend = 0, frame = 48
	@ frame_needed = 0, uses_anonymous_args = 0
.LVL109:
	push	{r4, r5, r6, r7, r8, r9, r10, fp, lr}
.LCFI24:
	.loc 1 769 0
	ldr	r5, .L252
	.loc 1 740 0
	sub	sp, sp, #68
.LCFI25:
	.loc 1 770 0
	uxtb	r3, r3
	str	r3, [sp, #20]
	strb	r3, [r5, #16]
	.loc 1 771 0
	ldr	r3, .L252+4
.LVL110:
	.loc 1 769 0
	strh	r2, [r5, #14]	@ movhi
	.loc 1 771 0
	ldrb	r3, [r3]	@ zero_extendqisi2
	strb	r3, [r5, #17]
	.loc 1 740 0
	mov	r6, r0
	.loc 1 782 0
	ldr	r3, .L252+8
	.loc 1 768 0
	ldr	r0, .L252+12
.LVL111:
	.loc 1 782 0
	ldr	r3, [r3, #44]
	.loc 1 740 0
	mov	r4, r1
	.loc 1 752 0
	movs	r1, #0
.LVL112:
	.loc 1 768 0
	strb	r1, [r0, #4]
	.loc 1 752 0
	str	r1, [sp, #52]
.LVL113:
	.loc 1 773 0
	strh	r1, [r5, #2]	@ movhi
	.loc 1 774 0
	strb	r1, [r5, #5]
	.loc 1 775 0
	str	r1, [r5, #8]
	.loc 1 776 0
	strb	r1, [r5, #12]
	.loc 1 777 0
	strb	r1, [r5, #13]
	.loc 1 778 0
	strb	r1, [r5, #18]
	.loc 1 779 0
	str	r1, [r5, #20]
	.loc 1 780 0
	strb	r1, [r5]
	.loc 1 782 0
	blx	r3
.LVL114:
	.loc 1 783 0
	ldr	r0, .L252+16
	bl	TimerStop
.LVL115:
	.loc 1 785 0
	ldrb	r3, [r6]	@ zero_extendqisi2
	str	r3, [sp, #32]
	.loc 1 787 0
	lsrs	r3, r3, #5
	subs	r3, r3, #1
	cmp	r3, #6
	bhi	.L187
	tbh	[pc, r3, lsl #1]
.L189:
	.2byte	(.L188-.L189)/2
	.2byte	(.L187-.L189)/2
	.2byte	(.L190-.L189)/2
	.2byte	(.L187-.L189)/2
	.2byte	(.L190-.L189)/2
	.2byte	(.L187-.L189)/2
	.2byte	(.L191-.L189)/2
	.p2align 1
.L188:
	.loc 1 790 0
	ldr	r7, .L252+20
	ldrb	r3, [r7]	@ zero_extendqisi2
	cbz	r3, .L192
.L199:
	.loc 1 792 0
	movs	r3, #1
.LVL116:
.L250:
	.loc 1 892 0
	strb	r3, [r5, #1]
	b	.L249
.LVL117:
.L192:
	.loc 1 796 0
	ldr	r5, .L252+24
	ldr	r8, .L252+96
	subs	r1, r4, #1
	adds	r0, r6, #1
	adds	r3, r5, #1
	ldr	r2, [r8]
	ldr	r6, .L252+28
.LVL118:
	uxth	r1, r1
	bl	LoRaMacJoinDecrypt
.LVL119:
	.loc 1 798 0
	ldr	r3, [sp, #32]
	strb	r3, [r5]
	.loc 1 800 0
	subs	r1, r4, #4
	add	r3, sp, #52
	ldr	r2, [r8]
	uxth	r1, r1
	mov	r0, r5
	bl	LoRaMacJoinComputeMic
.LVL120:
	.loc 1 803 0
	adds	r2, r5, r4
	.loc 1 804 0
	ldrb	r3, [r2, #-2]	@ zero_extendqisi2
	.loc 1 803 0
	ldrb	r1, [r2, #-3]	@ zero_extendqisi2
	.loc 1 804 0
	lsls	r3, r3, #16
	orr	r3, r3, r1, lsl #8
	.loc 1 802 0
	ldrb	r1, [r2, #-4]	@ zero_extendqisi2
	.loc 1 805 0
	ldrb	r2, [r2, #-1]	@ zero_extendqisi2
	.loc 1 804 0
	orrs	r3, r3, r1
.LVL121:
	.loc 1 805 0
	orr	r3, r3, r2, lsl #24
.LVL122:
	.loc 1 807 0
	ldr	r2, [sp, #52]
	cmp	r2, r3
	bne	.L194
	.loc 1 809 0
	ldr	r3, .L252+32
	ldrh	r2, [r3]
	ldr	r3, .L252+36
	str	r3, [sp]
.LVL123:
	adds	r1, r5, #1
	ldr	r3, .L252+40
	ldr	r0, [r8]
	bl	LoRaMacJoinComputeSKeys
.LVL124:
	.loc 1 813 0
	ldrb	r3, [r5, #6]	@ zero_extendqisi2
	.loc 1 812 0
	ldrb	r2, [r5, #5]	@ zero_extendqisi2
	.loc 1 813 0
	lsls	r3, r3, #16
	orr	r3, r3, r2, lsl #8
	.loc 1 811 0
	ldrb	r2, [r5, #4]	@ zero_extendqisi2
	.loc 1 813 0
	orrs	r3, r3, r2
	ldr	r2, .L252+44
	str	r3, [r2]
	.loc 1 818 0
	ldr	r3, .L252+48
	ldr	r2, [r5, #7]	@ unaligned
	str	r2, [r3]
	.loc 1 821 0
	ldrb	r2, [r5, #11]	@ zero_extendqisi2
	ldr	r3, .L252+52
	ubfx	r1, r2, #4, #3
	.loc 1 822 0
	and	r2, r2, #15
	strb	r2, [r3, #40]
	ldrb	r2, [r5, #12]	@ zero_extendqisi2
	.loc 1 821 0
	strb	r1, [r3, #33]
	.loc 1 826 0
	ands	r2, r2, #15
	.loc 1 828 0
	it	eq
	moveq	r2, #1
	str	r2, [r3, #16]
	.loc 1 830 0
	ldr	r1, [r3, #16]
	mov	r2, #1000
	muls	r2, r1, r2
	str	r2, [r3, #16]
	.loc 1 831 0
	add	r2, r2, #1000
	str	r2, [r3, #20]
	.loc 1 834 0
	ldr	r3, .L252+56
	str	r3, [sp, #56]
	.loc 1 838 0
	ldr	r3, .L252+60
	.loc 1 836 0
	subs	r4, r4, #17
	.loc 1 838 0
	ldrb	r0, [r3]	@ zero_extendqisi2
	.loc 1 836 0
	strb	r4, [sp, #60]
	.loc 1 838 0
	add	r1, sp, #56
	bl	RegionApplyCFList
.LVL125:
	.loc 1 840 0
	movs	r3, #0
	strb	r3, [r6, #1]
	.loc 1 841 0
	movs	r3, #1
	strb	r3, [r7]
.LVL126:
.L197:
	.loc 1 1129 0
	ldr	r3, .L252+64
.LBB134:
.LBB135:
	.loc 1 1509 0
	ldrb	r3, [r3]	@ zero_extendqisi2
	cmp	r3, #0
	bne	.L224
.LBE135:
.LBE134:
	.loc 1 1129 0
	ldr	r3, .L252+68
.LBB138:
.LBB136:
	.loc 1 1511 0
	ldrb	r3, [r3]	@ zero_extendqisi2
	cmp	r3, #2
	bne	.L225
.L226:
	.loc 1 1515 0
	ldr	r0, .L252+72
	bl	TimerStop
.LVL127:
.L225:
.LBE136:
.LBE138:
	.loc 1 1132 0
	ldr	r3, .L252+72
	ldrb	r3, [r3, #8]	@ zero_extendqisi2
	cbnz	r3, .L186
	.loc 1 1134 0
	ldr	r2, .L252+76
	.loc 1 1137 0
	ldr	r0, .L252+80
	.loc 1 1134 0
	ldrb	r3, [r2]	@ zero_extendqisi2
	.loc 1 1137 0
	movs	r1, #1
	.loc 1 1134 0
	orr	r3, r3, #32
	strb	r3, [r2]
	.loc 1 1137 0
	bl	TimerSetValue
.LVL128:
	.loc 1 1138 0
	ldr	r0, .L252+80
	bl	TimerStart
.LVL129:
.L186:
	.loc 1 1140 0
	add	sp, sp, #68
.LCFI26:
	@ sp needed
	pop	{r4, r5, r6, r7, r8, r9, r10, fp, pc}
.LVL130:
.L194:
.LCFI27:
	.loc 1 845 0
	movs	r3, #7
	strb	r3, [r6, #1]
	b	.L197
.LVL131:
.L190:
	.loc 1 852 0
	ldr	r3, .L252+52
	ldrb	r3, [r3, #45]	@ zero_extendqisi2
	strb	r3, [sp, #50]
	.loc 1 853 0
	ldrb	r3, [r5, #4]	@ zero_extendqisi2
	strb	r3, [sp, #49]
	.loc 1 854 0
	movs	r3, #9
	strb	r3, [sp, #48]
	.loc 1 857 0
	ldr	r3, .L252+84
	ldrb	r3, [r3]	@ zero_extendqisi2
	cbz	r3, .L198
	.loc 1 859 0
	movs	r3, #10
	strb	r3, [sp, #48]
.L198:
	.loc 1 861 0
	ldr	r3, .L252+60
	add	r1, sp, #48
	ldrb	r0, [r3]	@ zero_extendqisi2
	bl	RegionGetPhyParam
.LVL132:
	.loc 1 862 0
	sub	r3, r4, #13
	sxth	r3, r3
	bic	r3, r3, r3, asr #31
	cmp	r3, r0
	bhi	.L199
.LVL133:
	.loc 1 874 0
	ldr	r3, .L252+48
	.loc 1 872 0
	ldr	r8, [r6, #1]	@ unaligned
.LVL134:
	.loc 1 874 0
	ldr	r3, [r3]
	cmp	r3, r8
	beq	.L200
	.loc 1 876 0
	ldr	r3, .L252+88
	ldr	r7, [r3]
.LVL135:
.L201:
	.loc 1 877 0
	cbnz	r7, .L204
	.loc 1 892 0
	movs	r3, #11
	b	.L250
.L204:
	.loc 1 879 0
	ldr	r3, [r7]
	cmp	r3, r8
	bne	.L202
.LVL136:
	.loc 1 882 0
	adds	r3, r7, #4
	str	r3, [sp, #24]
.LVL137:
	.loc 1 883 0
	add	r3, r7, #20
.LVL138:
	str	r3, [sp, #40]
.LVL139:
	.loc 1 884 0
	ldr	r10, [r7, #36]
.LVL140:
	movs	r3, #1
.LVL141:
	str	r3, [sp, #28]
.LVL142:
.L203:
	.loc 1 905 0
	ldrb	fp, [r6, #5]	@ zero_extendqisi2
.LVL143:
	.loc 1 908 0
	ldrb	r9, [r6, #6]	@ zero_extendqisi2
	.loc 1 913 0
	adds	r2, r6, r4
	.loc 1 910 0
	and	r3, fp, #15
	str	r3, [sp, #36]
.LVL144:
	.loc 1 914 0
	ldrb	r3, [r2, #-2]	@ zero_extendqisi2
	.loc 1 913 0
	ldrb	r1, [r2, #-3]	@ zero_extendqisi2
	.loc 1 914 0
	lsls	r3, r3, #16
	orr	r3, r3, r1, lsl #8
	.loc 1 912 0
	ldrb	r1, [r2, #-4]	@ zero_extendqisi2
	.loc 1 915 0
	ldrb	r2, [r2, #-1]	@ zero_extendqisi2
.LVL145:
	.loc 1 914 0
	orrs	r3, r3, r1
.LVL146:
	.loc 1 915 0
	orr	r3, r3, r2, lsl #24
.LVL147:
	str	r3, [sp, #44]
.LVL148:
	.loc 1 908 0
	ldrb	r3, [r6, #7]	@ zero_extendqisi2
.LVL149:
	orr	r9, r9, r3, lsl #8
	.loc 1 918 0
	sub	r9, r9, r10
	uxth	r9, r9
.LVL150:
	.loc 1 920 0
	sxth	r2, r9
	subs	r1, r4, #4
	cmp	r2, #0
	uxth	r1, r1
	add	r3, sp, #52
	blt	.L206
	.loc 1 922 0
	add	r5, r9, r10
.LVL151:
	.loc 1 923 0
	strd	r5, r3, [sp, #4]
.LVL152:
	movs	r3, #1
	str	r3, [sp]
	ldr	r2, [sp, #24]
	mov	r3, r8
	mov	r0, r6
.LVL153:
	bl	LoRaMacComputeMic
.LVL154:
	.loc 1 924 0
	ldr	r3, [sp, #52]
	ldr	r2, [sp, #44]
	subs	r2, r3, r2
	rsbs	r10, r2, #0
.LVL155:
	adc	r10, r10, r2
.LVL156:
.L207:
	.loc 1 942 0
	add	r1, sp, #64
	movs	r3, #17
	strb	r3, [r1, #-16]!
	.loc 1 943 0
	ldr	r3, .L252+60
	ldrb	r0, [r3]	@ zero_extendqisi2
	bl	RegionGetPhyParam
.LVL157:
	.loc 1 944 0
	cmp	r9, r0
	ldr	r3, .L252
	bcc	.L208
	.loc 1 946 0
	movs	r2, #10
	strb	r2, [r3, #1]
	.loc 1 947 0
	str	r5, [r3, #20]
.LVL158:
.L249:
	.loc 1 893 0
	bl	PrepareRxDoneAbort
.LVL159:
	.loc 1 894 0
	b	.L186
.LVL160:
.L202:
	.loc 1 887 0
	ldr	r7, [r7, #40]
.LVL161:
	b	.L201
.LVL162:
.L200:
	.loc 1 902 0
	ldr	r3, .L252+92
	ldr	r10, [r3]
.LVL163:
	.loc 1 899 0
	movs	r3, #0
	str	r3, [sp, #28]
	.loc 1 901 0
	ldr	r3, .L252+36
	str	r3, [sp, #40]
	.loc 1 900 0
	ldr	r3, .L252+40
	str	r3, [sp, #24]
	.loc 1 760 0
	movs	r7, #0
	b	.L203
.LVL164:
.L206:
.LBB139:
	.loc 1 932 0
	add	r5, r10, #65536
	add	r5, r5, r2
.LVL165:
	.loc 1 933 0
	strd	r5, r3, [sp, #4]
.LVL166:
	movs	r3, #1
	str	r3, [sp]
	ldr	r2, [sp, #24]
	mov	r3, r8
	mov	r0, r6
.LVL167:
	bl	LoRaMacComputeMic
.LVL168:
	.loc 1 934 0
	ldr	r3, [sp, #52]
	ldr	r2, [sp, #44]
	cmp	r3, r2
	itet	ne
	movne	r5, r10
.LVL169:
	moveq	r10, #1
.LVL170:
	movne	r10, #0
	b	.L207
.L253:
	.align	2
.L252:
	.word	.LANCHOR31
	.word	.LANCHOR29
	.word	Radio
	.word	.LANCHOR34
	.word	.LANCHOR32
	.word	.LANCHOR3
	.word	.LANCHOR47
	.word	.LANCHOR35
	.word	.LANCHOR49
	.word	.LANCHOR45
	.word	.LANCHOR46
	.word	.LANCHOR50
	.word	.LANCHOR51
	.word	.LANCHOR0
	.word	.LANCHOR47+13
	.word	.LANCHOR2
	.word	.LANCHOR17
	.word	.LANCHOR25
	.word	.LANCHOR23
	.word	.LANCHOR26
	.word	.LANCHOR27
	.word	.LANCHOR1
	.word	.LANCHOR20
	.word	.LANCHOR5
	.word	.LANCHOR48
.LVL171:
.L208:
.LBE139:
	.loc 1 952 0
	cmp	r10, #0
	beq	.L209
	.loc 1 963 0
	ldr	r0, .L254
.LVL172:
	.loc 1 955 0
	ldr	r1, [sp, #28]
	strb	r1, [r3, #2]
	.loc 1 954 0
	movs	r2, #0
	.loc 1 963 0
	str	r2, [r0]
	.loc 1 964 0
	ldr	r0, .L254+4
	.loc 1 954 0
	strb	r2, [r3, #1]
	.loc 1 956 0
	ubfx	r1, fp, #4, #1
	strb	r1, [r3, #5]
	.loc 1 964 0
	strb	r2, [r0]
	.loc 1 961 0
	ldr	r1, .L254+8
	.loc 1 967 0
	ldr	r0, [sp, #28]
	.loc 1 957 0
	str	r2, [r3, #8]
	.loc 1 958 0
	strb	r2, [r3, #12]
	.loc 1 959 0
	str	r5, [r3, #20]
	.loc 1 961 0
	strb	r2, [r1, #1]
	.loc 1 967 0
	cmp	r0, #0
	beq	.L210
	.loc 1 969 0
	movs	r2, #2
	strb	r2, [r3]
	.loc 1 971 0
	ldr	r3, [r7, #36]
	cmp	r3, r5
	bne	.L211
	.loc 1 971 0 is_stmt 0 discriminator 1
	cbz	r5, .L211
.LVL173:
.L216:
	.loc 1 974 0 is_stmt 1
	ldr	r3, .L254+12
	movs	r2, #8
.L251:
	.loc 1 1103 0
	strb	r2, [r3, #1]
	b	.L249
.LVL174:
.L211:
	.loc 1 979 0
	str	r5, [r7, #36]
.LVL175:
.L212:
	.loc 1 1020 0
	ldrb	r3, [r1]	@ zero_extendqisi2
	cmp	r3, #1
	uxtb	r7, fp
	bne	.L217
	.loc 1 1022 0
	lsls	r3, r7, #26
	bpl	.L218
	.loc 1 1024 0
	ldr	r3, .L254+16
	movs	r2, #0
	strb	r2, [r3]
	.loc 1 1027 0
	ldr	r2, .L254+12
	.loc 1 1026 0
	ubfx	r3, fp, #5, #1
	strb	r3, [r1, #4]
	.loc 1 1027 0
	strb	r3, [r2, #18]
.L218:
	.loc 1 910 0
	ldr	r3, [sp, #36]
	ldr	r9, .L254+20
.LVL176:
	add	r2, r3, #8
	.loc 1 1036 0
	subs	r3, r4, #4
	subs	r3, r3, r2
	cmp	r3, #0
	and	r7, r7, #15
	ble	.L219
	.loc 1 1038 0
	ldr	r3, [sp, #36]
	.loc 1 1041 0
	ldr	r0, .L254+12
	.loc 1 1038 0
	add	fp, r3, #9
.LVL177:
	.loc 1 1039 0
	sub	r4, r4, fp
	.loc 1 1038 0
	ldrb	r3, [r6, r2]	@ zero_extendqisi2
.LVL178:
	.loc 1 1041 0
	strb	r3, [r0, #3]
	.loc 1 1039 0
	subs	r4, r4, #4
	uxtb	r4, r4
.LVL179:
	mov	r10, r0
.LVL180:
	.loc 1 1043 0
	cmp	r3, #0
	bne	.L220
	.loc 1 1046 0
	cmp	r7, #0
	bne	.L221
	.loc 1 1048 0
	ldr	r10, .L254+24
	ldr	r2, [sp, #24]
	movs	r3, #1
.LVL181:
	str	r3, [sp]
	mov	r1, r4
	mov	r3, r8
	add	r0, r6, fp
	strd	r5, r10, [sp, #4]
	bl	LoRaMacPayloadDecrypt
.LVL182:
	.loc 1 1057 0
	ldr	r3, [sp, #20]
	mov	r2, r4
	mov	r1, r7
	mov	r0, r10
.LVL183:
.L248:
	.loc 1 1093 0
	bl	ProcessMacCommands
.LVL184:
	b	.L222
.LVL185:
.L210:
	.loc 1 983 0
	ldr	r0, [sp, #32]
	ldr	ip, .L254+36
	and	r0, r0, #224
	cmp	r0, #160
	ldr	r7, [ip]
.LVL186:
	mov	r0, ip
	ldr	ip, .L254+40
	bne	.L213
	.loc 1 985 0
	movs	r2, #1
	.loc 1 988 0
	cmp	r5, r7
	.loc 1 985 0
	strb	r2, [ip]
	.loc 1 986 0
	strb	r2, [r3]
	.loc 1 988 0
	bne	.L215
	.loc 1 988 0 is_stmt 0 discriminator 1
	cbz	r5, .L215
	.loc 1 996 0 is_stmt 1
	ldr	r2, .L254+20
	ldrb	r3, [r2]	@ zero_extendqisi2
	orr	r3, r3, #4
	strb	r3, [r2]
.L215:
	.loc 1 1013 0
	str	r5, [r0]
	b	.L212
.L213:
	.loc 1 1004 0
	cmp	r5, r7
	.loc 1 1001 0
	strb	r2, [ip]
	.loc 1 1002 0
	strb	r2, [r3]
	.loc 1 1004 0
	bne	.L215
	.loc 1 1004 0 is_stmt 0 discriminator 1
	cmp	r5, #0
	beq	.L215
	b	.L216
.L217:
	.loc 1 1032 0 is_stmt 1
	ldr	r3, .L254+16
	movs	r2, #0
	strb	r2, [r3]
	b	.L218
.LVL187:
.L221:
	.loc 1 1061 0
	ldrb	r2, [r9]	@ zero_extendqisi2
	.loc 1 1063 0
	strb	r3, [r1, #4]
	.loc 1 1061 0
	orr	r2, r2, #4
	strb	r2, [r9]
	.loc 1 1064 0
	strb	r3, [r0, #18]
.LVL188:
.L222:
	.loc 1 1099 0
	ldrb	r3, [r9]	@ zero_extendqisi2
	orr	r3, r3, #2
	strb	r3, [r9]
	.loc 1 1109 0
	b	.L197
.LVL189:
.L220:
	.loc 1 1069 0
	cbz	r7, .L223
	.loc 1 1072 0
	ldr	r3, [sp, #20]
.LVL190:
	movs	r1, #8
	mov	r0, r6
	bl	ProcessMacCommands
.LVL191:
.L223:
	.loc 1 1075 0
	ldr	r7, .L254+24
	ldr	r2, [sp, #40]
	strd	r5, r7, [sp, #4]
	movs	r5, #1
.LVL192:
	str	r5, [sp]
	mov	r3, r8
	mov	r1, r4
	add	r0, r6, fp
	bl	LoRaMacPayloadDecrypt
.LVL193:
	.loc 1 1083 0
	str	r7, [r10, #8]
	.loc 1 1084 0
	strb	r4, [r10, #12]
	.loc 1 1085 0
	strb	r5, [r10, #13]
	b	.L222
.LVL194:
.L219:
	.loc 1 1090 0
	cmp	r7, #0
	beq	.L222
	.loc 1 1093 0
	ldr	r3, [sp, #20]
	movs	r1, #8
	mov	r0, r6
	b	.L248
.LVL195:
.L209:
	.loc 1 1103 0
	movs	r2, #12
	b	.L251
.LVL196:
.L191:
	.loc 1 1112 0
	ldr	r7, .L254+24
	mov	r2, r4
	adds	r1, r6, #1
	mov	r0, r7
	bl	memcpy1
.LVL197:
	.loc 1 1114 0
	movs	r3, #3
	.loc 1 1119 0
	ldr	r2, .L254+20
	.loc 1 1114 0
	strb	r3, [r5]
	.loc 1 1115 0
	movs	r3, #0
	strb	r3, [r5, #1]
	.loc 1 1119 0
	ldrb	r3, [r2]	@ zero_extendqisi2
	.loc 1 1116 0
	str	r7, [r5, #8]
	.loc 1 1117 0
	subs	r4, r4, #1
	.loc 1 1119 0
	orr	r3, r3, #2
	.loc 1 1117 0
	strb	r4, [r5, #12]
	.loc 1 1119 0
	strb	r3, [r2]
	.loc 1 1120 0
	b	.L197
.L187:
	.loc 1 1123 0
	movs	r3, #1
	strb	r3, [r5, #1]
	.loc 1 1124 0
	bl	PrepareRxDoneAbort
.LVL198:
	.loc 1 1125 0
	b	.L197
.LVL199:
.L224:
	.loc 1 1129 0
	ldr	r3, .L254+8
.LBB140:
.LBB137:
	.loc 1 1520 0
	ldrb	r3, [r3, #4]	@ zero_extendqisi2
	cmp	r3, #0
	bne	.L226
	.loc 1 1528 0
	ldr	r3, .L254+28
	ldrb	r2, [r3]	@ zero_extendqisi2
	ldr	r3, .L254+32
	ldrb	r3, [r3]	@ zero_extendqisi2
	cmp	r2, r3
	bls	.L225
	b	.L226
.L255:
	.align	2
.L254:
	.word	.LANCHOR6
	.word	.LANCHOR14
	.word	.LANCHOR34
	.word	.LANCHOR31
	.word	.LANCHOR13
	.word	.LANCHOR26
	.word	.LANCHOR47
	.word	.LANCHOR9
	.word	.LANCHOR8
	.word	.LANCHOR5
	.word	.LANCHOR18
.LBE137:
.LBE140:
.LFE2:
	.size	OnRadioRxDone, .-OnRadioRxDone
	.section	.text.PrepareFrame,"ax",%progbits
	.align	1
	.global	PrepareFrame
	.syntax unified
	.thumb
	.thumb_func
	.fpu fpv4-sp-d16
	.type	PrepareFrame, %function
PrepareFrame:
.LFB25:
	.loc 1 2151 0
	@ args = 4, pretend = 0, frame = 32
	@ frame_needed = 0, uses_anonymous_args = 0
.LVL200:
	push	{r4, r5, r6, r7, r8, r9, r10, fp, lr}
.LCFI28:
	sub	sp, sp, #52
.LCFI29:
	.loc 1 2151 0
	mov	r7, r1
	mov	r10, r2
	.loc 1 2159 0
	ldr	r5, .L311
	.loc 1 2151 0
	ldrh	r2, [sp, #88]
.LVL201:
	.loc 1 2161 0
	ldr	r1, .L311+4
.LVL202:
	.loc 1 2168 0
	ldr	r9, .L311+80
	.loc 1 2155 0
	movs	r4, #0
	.loc 1 2165 0
	cmp	r3, r4
	it	eq
	moveq	r2, r4
	.loc 1 2155 0
	str	r4, [sp, #32]
.LVL203:
	.loc 1 2159 0
	strh	r4, [r5]	@ movhi
	.loc 1 2161 0
	strb	r4, [r1]
	.loc 1 2170 0
	ldr	r4, .L311+8
	.loc 1 2165 0
	mov	r6, r3
	.loc 1 2170 0
	ldrb	r3, [r0]	@ zero_extendqisi2
.LVL204:
	strb	r3, [r4]
	.loc 1 2172 0
	ldrb	r3, [r0]	@ zero_extendqisi2
	.loc 1 2168 0
	uxtb	r2, r2
.LVL205:
	.loc 1 2172 0
	lsrs	r3, r3, #5
	.loc 1 2168 0
	strb	r2, [r9]
.LVL206:
	.loc 1 2172 0
	cmp	r3, #7
	bhi	.L282
	tbh	[pc, r3, lsl #1]
.LVL207:
.L260:
	.2byte	(.L259-.L260)/2
	.2byte	(.L282-.L260)/2
	.2byte	(.L261-.L260)/2
	.2byte	(.L282-.L260)/2
	.2byte	(.L262-.L260)/2
	.2byte	(.L282-.L260)/2
	.2byte	(.L282-.L260)/2
	.2byte	(.L263-.L260)/2
	.p2align 1
.L259:
	.loc 1 2175 0
	movs	r3, #1
	strh	r3, [r5]	@ movhi
	.loc 1 2177 0
	ldr	r3, .L311+12
	ldr	r0, .L311+16
	ldr	r1, [r3]
	movs	r2, #8
	bl	memcpyr
.LVL208:
	.loc 1 2178 0
	ldrh	r0, [r5]
	.loc 1 2179 0
	ldr	r3, .L311+20
	.loc 1 2178 0
	adds	r0, r0, #8
	uxth	r0, r0
	.loc 1 2179 0
	ldr	r1, [r3]
	.loc 1 2178 0
	strh	r0, [r5]	@ movhi
	.loc 1 2179 0
	movs	r2, #8
	add	r0, r0, r4
	bl	memcpyr
.LVL209:
	.loc 1 2180 0
	ldrh	r3, [r5]
	adds	r3, r3, #8
	strh	r3, [r5]	@ movhi
	.loc 1 2182 0
	ldr	r3, .L311+24
	ldr	r3, [r3, #20]
	blx	r3
.LVL210:
	ldr	r3, .L311+28
	uxth	r2, r0
	strh	r2, [r3]	@ movhi
	.loc 1 2184 0
	ldrh	r3, [r5]
	strb	r0, [r4, r3]
	.loc 1 2185 0
	adds	r1, r3, #2
	.loc 1 2184 0
	adds	r3, r3, #1
	.loc 1 2185 0
	uxth	r3, r3
	lsrs	r2, r2, #8
	strb	r2, [r4, r3]
	.loc 1 2187 0
	ldr	r2, .L311+32
	ldr	r0, .L311+8
	ldr	r2, [r2]
	.loc 1 2185 0
	uxth	r1, r1
	strh	r1, [r5]	@ movhi
	.loc 1 2187 0
	add	r3, sp, #32
	uxtb	r1, r1
	bl	LoRaMacJoinComputeMic
.LVL211:
	.loc 1 2189 0
	ldrh	r3, [r5]
	ldr	r2, [sp, #32]
	strb	r2, [r4, r3]
	adds	r1, r3, #1
	.loc 1 2190 0
	uxth	r1, r1
	lsrs	r0, r2, #8
	strb	r0, [r4, r1]
	adds	r1, r3, #2
	.loc 1 2191 0
	uxth	r1, r1
	lsrs	r0, r2, #16
	strb	r0, [r4, r1]
	.loc 1 2192 0
	adds	r1, r3, #4
	.loc 1 2191 0
	adds	r3, r3, #3
	.loc 1 2192 0
	uxth	r3, r3
	lsrs	r2, r2, #24
	strb	r2, [r4, r3]
	strh	r1, [r5]	@ movhi
.LVL212:
.L309:
	.loc 1 2313 0
	movs	r0, #0
.LVL213:
.L258:
	.loc 1 2314 0
	add	sp, sp, #52
.LCFI30:
	@ sp needed
	pop	{r4, r5, r6, r7, r8, r9, r10, fp, pc}
.LVL214:
.L262:
.LCFI31:
	.loc 1 2196 0
	movs	r3, #1
	strb	r3, [r1]
.L261:
	.loc 1 2199 0
	ldr	r3, .L311+36
	ldrb	r3, [r3]	@ zero_extendqisi2
	cmp	r3, #0
	beq	.L283
	.loc 1 2205 0
	movs	r3, #1
	strb	r3, [sp, #36]
	.loc 1 2206 0
	ldrb	r3, [r7]	@ zero_extendqisi2
	.loc 1 2207 0
	ldr	r2, .L311+40
	.loc 1 2206 0
	ubfx	r3, r3, #7, #1
	strb	r3, [sp, #37]
	.loc 1 2207 0
	ldr	r3, [r2]
	str	r3, [sp, #40]
	.loc 1 2208 0
	ldr	r3, .L311+44
	ldrb	r1, [r3, #1]	@ zero_extendqisi2
	strb	r1, [sp, #44]
	.loc 1 2209 0
	ldrb	r1, [r3]	@ zero_extendqisi2
	strb	r1, [sp, #45]
	.loc 1 2210 0
	ldrb	r1, [r3, #44]	@ zero_extendqisi2
	strb	r1, [sp, #46]
	.loc 1 2212 0
	ldr	r1, .L311+48
	ldrb	r0, [r1]	@ zero_extendqisi2
	str	r2, [sp]
	add	r1, sp, #36
	adds	r2, r3, #1
	bl	RegionAdrNext
.LVL215:
	ldrb	r3, [r7]	@ zero_extendqisi2
	bfi	r3, r0, #6, #1
	strb	r3, [r7]
	.loc 1 2215 0
	ldr	r3, .L311+52
	ldrb	r2, [r3]	@ zero_extendqisi2
	cbz	r2, .L264
	.loc 1 2217 0
	movs	r2, #0
.LVL216:
	strb	r2, [r3]
	.loc 1 2218 0
	ldrb	r3, [r7]	@ zero_extendqisi2
	orr	r3, r3, #32
	strb	r3, [r7]
.LVL217:
.L264:
	.loc 1 2221 0
	ldr	r3, .L311+56
	.loc 1 2228 0
	ldr	fp, .L311+84
	.loc 1 2221 0
	ldr	r2, [r3]
	strb	r2, [r4, #1]
	.loc 1 2222 0
	lsrs	r1, r2, #8
	strb	r1, [r4, #2]
	.loc 1 2223 0
	lsrs	r1, r2, #16
	.loc 1 2224 0
	lsrs	r2, r2, #24
	.loc 1 2223 0
	strb	r1, [r4, #3]
	.loc 1 2224 0
	strb	r2, [r4, #4]
	.loc 1 2226 0
	ldrb	r2, [r7]	@ zero_extendqisi2
	strb	r2, [r4, #5]
	.loc 1 2228 0
	ldr	r2, [fp]
	.loc 1 2232 0
	ldr	r8, .L311+88
	.loc 1 2221 0
	str	r3, [sp, #20]
.LVL218:
	.loc 1 2232 0
	ldr	r3, .L311+60
	.loc 1 2228 0
	strb	r2, [r4, #6]
.LVL219:
	.loc 1 2229 0
	lsrs	r2, r2, #8
	strb	r2, [r4, #7]
	.loc 1 2232 0
	ldrb	r0, [r8]	@ zero_extendqisi2
	ldrb	r2, [r3]	@ zero_extendqisi2
	ldr	r3, .L311+64
	ldr	r1, .L311+68
	add	r0, r0, r3
	bl	memcpy1
.LVL220:
	.loc 1 2233 0
	ldr	r3, .L311+60
	ldrb	r0, [r8]	@ zero_extendqisi2
	ldrb	r2, [r3]	@ zero_extendqisi2
	ldr	r3, .L311+60
	str	r3, [sp, #24]
	add	r0, r0, r2
	uxtb	r0, r0
	strb	r0, [r8]
	ldr	r2, .L311+64
	str	r8, [sp, #28]
	ldr	r3, .L311+72
	.loc 1 2235 0
	cmp	r6, #0
	beq	.L265
	.loc 1 2235 0 is_stmt 0 discriminator 1
	ldrb	r1, [r9]	@ zero_extendqisi2
	cmp	r1, #0
	beq	.L265
	.loc 1 2237 0 is_stmt 1
	ldrb	r3, [r3]	@ zero_extendqisi2
	cmp	r3, #0
	beq	.L286
	.loc 1 2239 0
	cmp	r0, #15
	bhi	.L310
	.loc 1 2241 0
	ldrb	r3, [r7]	@ zero_extendqisi2
	ubfx	r1, r3, #0, #4
	add	r1, r1, r0
	bfi	r3, r1, #0, #4
	strb	r3, [r7]
	.loc 1 2245 0
	uxth	r1, r0
	.loc 1 2244 0
	strb	r3, [r4, #5]
.LVL221:
	.loc 1 2245 0
	movs	r3, #0
.LVL222:
.L268:
	.loc 1 2245 0 is_stmt 0 discriminator 1
	uxth	r7, r3
	cmp	r1, r7
	bhi	.L269
	add	r7, r0, #8
	uxtb	r7, r7
.LVL223:
.L266:
	.loc 1 2267 0 is_stmt 1
	ldr	r3, .L311+72
	movs	r2, #0
.LVL224:
	strb	r2, [r3]
.LVL225:
.LBB143:
.LBB144:
	.loc 1 1729 0
	mov	r3, r2
.LVL226:
.L270:
	cmp	r0, r3
	bhi	.L277
.LVL227:
.LBE144:
.LBE143:
	.loc 1 2269 0
	ldr	r3, [sp, #24]
	strb	r2, [r3]
	.loc 1 2270 0
	cbz	r2, .L278
	.loc 1 2272 0
	ldr	r3, .L311+72
	movs	r2, #1
	strb	r2, [r3]
.L278:
	.loc 1 2275 0
	cbz	r6, .L279
	ldrb	r1, [r9]	@ zero_extendqisi2
	.loc 1 2275 0 is_stmt 0 discriminator 1
	cbz	r1, .L279
	ldr	r3, [sp, #20]
	ldr	r2, [fp]
	ldr	r3, [r3]
	.loc 1 2277 0 is_stmt 1
	strb	r10, [r4, r7]
	add	r8, r7, #1
	uxtb	r8, r8
.LVL228:
	uxth	r1, r1
	add	r0, r4, r8
	.loc 1 2279 0
	cmp	r10, #0
	bne	.L280
	.loc 1 2282 0
	ldr	r7, [sp, #28]
	strb	r10, [r7]
	.loc 1 2283 0
	strd	r2, r0, [sp, #4]
	ldr	r2, .L311+76
	str	r10, [sp]
.L308:
	.loc 1 2287 0
	mov	r0, r6
	bl	LoRaMacPayloadEncrypt
.LVL229:
	.loc 1 2277 0
	mov	r7, r8
.LVL230:
.L279:
	.loc 1 2292 0
	add	r3, sp, #32
	str	r3, [sp, #8]
	ldr	r3, [fp]
	str	r3, [sp, #4]
	.loc 1 2290 0
	ldrb	r1, [r9]	@ zero_extendqisi2
	.loc 1 2292 0
	ldr	r3, [sp, #20]
	ldr	r2, .L311+76
	ldr	r0, .L311+8
	movs	r6, #0
.LVL231:
	str	r6, [sp]
	.loc 1 2290 0
	add	r1, r1, r7
	.loc 1 2292 0
	ldr	r3, [r3]
	.loc 1 2290 0
	strh	r1, [r5]	@ movhi
	.loc 1 2292 0
	bl	LoRaMacComputeMic
.LVL232:
	.loc 1 2294 0
	ldrh	r2, [r5]
	ldr	r3, [sp, #32]
	strb	r3, [r4, r2]
	.loc 1 2295 0
	add	r4, r4, r2
	lsrs	r1, r3, #8
	strb	r1, [r4, #1]
	.loc 1 2299 0
	adds	r2, r2, #4
	.loc 1 2296 0
	lsrs	r1, r3, #16
	.loc 1 2297 0
	lsrs	r3, r3, #24
	.loc 1 2296 0
	strb	r1, [r4, #2]
	.loc 1 2297 0
	strb	r3, [r4, #3]
	.loc 1 2299 0
	strh	r2, [r5]	@ movhi
	b	.L309
.LVL233:
.L269:
	.loc 1 2247 0 discriminator 3
	adds	r7, r4, r3
	ldrb	ip, [r2, r3]	@ zero_extendqisi2
	strb	ip, [r7, #8]
.LVL234:
	adds	r3, r3, #1
.LVL235:
	b	.L268
.LVL236:
.L265:
	.loc 1 2260 0
	cbz	r0, .L286
	.loc 1 2260 0 is_stmt 0 discriminator 1
	ldrb	r3, [r3]	@ zero_extendqisi2
	cbz	r3, .L286
.L310:
	.loc 1 2263 0 is_stmt 1
	ldr	r6, .L311+64
.LVL237:
	.loc 1 2262 0
	strb	r0, [r9]
.LVL238:
	.loc 1 2264 0
	mov	r10, #0
.LVL239:
.L286:
	.loc 1 2229 0
	movs	r7, #8
.LVL240:
	b	.L266
.LVL241:
.L277:
.LBB146:
.LBB145:
	.loc 1 1731 0
	ldr	r1, .L311+64
	ldrb	r8, [r1, r3]	@ zero_extendqisi2
	sub	ip, r8, #3
	cmp	ip, #7
	bhi	.L271
	tbb	[pc, ip]
.L273:
	.byte	(.L272-.L273)/2
	.byte	(.L271-.L273)/2
	.byte	(.L274-.L273)/2
	.byte	(.L275-.L273)/2
	.byte	(.L272-.L273)/2
	.byte	(.L276-.L273)/2
	.byte	(.L271-.L273)/2
	.byte	(.L274-.L273)/2
	.p2align 1
.L312:
	.align	2
.L311:
	.word	.LANCHOR52
	.word	.LANCHOR17
	.word	.LANCHOR54
	.word	.LANCHOR55
	.word	.LANCHOR54+1
	.word	.LANCHOR56
	.word	Radio
	.word	.LANCHOR49
	.word	.LANCHOR48
	.word	.LANCHOR3
	.word	.LANCHOR6
	.word	.LANCHOR0
	.word	.LANCHOR2
	.word	.LANCHOR18
	.word	.LANCHOR51
	.word	.LANCHOR14
	.word	.LANCHOR41
	.word	.LANCHOR57
	.word	.LANCHOR19
	.word	.LANCHOR46
	.word	.LANCHOR53
	.word	.LANCHOR4
	.word	.LANCHOR13
.L274:
	.loc 1 1737 0
	ldr	r1, .L313
	adds	r3, r3, #1
.LVL242:
	strb	r8, [r1, r2]
	uxtb	r3, r3
.LVL243:
	.loc 1 1738 0
	ldr	r1, .L313+4
	.loc 1 1737 0
	add	ip, r2, #1
	.loc 1 1738 0
	ldrb	r8, [r1, r3]	@ zero_extendqisi2
	ldr	r1, .L313
	.loc 1 1737 0
	uxtb	ip, ip
.LVL244:
	.loc 1 1738 0
	adds	r2, r2, #2
	strb	r8, [r1, ip]
	uxtb	r2, r2
.LVL245:
.L271:
	.loc 1 1729 0
	adds	r3, r3, #1
.LVL246:
	uxtb	r3, r3
.LVL247:
	b	.L270
.L276:
	.loc 1 1743 0
	ldr	r1, .L313
	add	ip, r2, #1
.LVL248:
	mov	r8, #8
	strb	r8, [r1, r2]
	uxtb	r2, ip
	b	.L271
.LVL249:
.L275:
	.loc 1 1749 0
	adds	r3, r3, #2
.LVL250:
.L307:
	.loc 1 1755 0
	uxtb	r3, r3
.LVL251:
	b	.L271
.L272:
	adds	r3, r3, #1
.LVL252:
	b	.L307
.LVL253:
.L280:
.LBE145:
.LBE146:
	.loc 1 2287 0
	strd	r2, r0, [sp, #4]
	movs	r2, #0
.LVL254:
	str	r2, [sp]
	ldr	r2, .L313+8
.LVL255:
	b	.L308
.LVL256:
.L263:
	.loc 1 2303 0
	cmp	r6, #0
	beq	.L309
	.loc 1 2303 0 is_stmt 0 discriminator 1
	cbz	r2, .L288
	.loc 1 2305 0 is_stmt 1
	mov	r1, r6
	ldr	r0, .L313+12
	bl	memcpy1
.LVL257:
	.loc 1 2306 0
	ldrb	r3, [r9]	@ zero_extendqisi2
	adds	r3, r3, #1
	strh	r3, [r5]	@ movhi
	b	.L309
.LVL258:
.L282:
	.loc 1 2310 0
	movs	r0, #2
	b	.L258
.L283:
	.loc 1 2201 0
	movs	r0, #7
	b	.L258
.L288:
	.loc 1 2313 0
	mov	r0, r2
	b	.L258
.L314:
	.align	2
.L313:
	.word	.LANCHOR57
	.word	.LANCHOR41
	.word	.LANCHOR45
	.word	.LANCHOR54+1
.LFE25:
	.size	PrepareFrame, .-PrepareFrame
	.section	.text.SendFrameOnChannel,"ax",%progbits
	.align	1
	.global	SendFrameOnChannel
	.syntax unified
	.thumb
	.thumb_func
	.fpu fpv4-sp-d16
	.type	SendFrameOnChannel, %function
SendFrameOnChannel:
.LFB26:
	.loc 1 2317 0
	@ args = 0, pretend = 0, frame = 24
	@ frame_needed = 0, uses_anonymous_args = 0
.LVL259:
	push	{r4, r5, r6, r7, r8, lr}
.LCFI32:
	.loc 1 2322 0
	ldr	r4, .L316
	.loc 1 2326 0
	ldr	r6, .L316+4
	.loc 1 2322 0
	ldrb	r3, [r4, #1]	@ zero_extendqisi2
	.loc 1 2328 0
	ldr	r7, .L316+8
	.loc 1 2317 0
	sub	sp, sp, #24
.LCFI33:
	.loc 1 2317 0
	mov	r8, r0
	.loc 1 2322 0
	strb	r3, [sp, #9]
	.loc 1 2323 0
	ldrb	r3, [r4]	@ zero_extendqisi2
	strb	r3, [sp, #10]
	.loc 1 2324 0
	ldr	r3, [r4, #48]	@ float
	.loc 1 2321 0
	strb	r0, [sp, #8]
	.loc 1 2324 0
	str	r3, [sp, #12]	@ float
	.loc 1 2328 0
	ldr	r0, .L316+12
.LVL260:
	.loc 1 2325 0
	ldr	r3, [r4, #52]	@ float
	str	r3, [sp, #16]	@ float
	.loc 1 2326 0
	ldrh	r3, [r6]
	strh	r3, [sp, #20]	@ movhi
	.loc 1 2319 0
	movs	r5, #0
	.loc 1 2328 0
	mov	r3, r7
	add	r2, sp, #7
	add	r1, sp, #8
.LVL261:
	ldrb	r0, [r0]	@ zero_extendqisi2
	.loc 1 2319 0
	strb	r5, [sp, #7]
	.loc 1 2328 0
	bl	RegionTxConfig
.LVL262:
	.loc 1 2331 0
	ldr	r3, .L316+16
	.loc 1 2330 0
	ldr	r2, .L316+20
	.loc 1 2334 0
	str	r8, [r3, #16]
	.loc 1 2330 0
	movs	r1, #1
	strb	r1, [r2, #1]
	.loc 1 2331 0
	strb	r1, [r3, #1]
	.loc 1 2332 0
	ldrb	r1, [r4, #1]	@ zero_extendqisi2
	strb	r1, [r3, #2]
	.loc 1 2341 0
	ldr	r4, .L316+24
	.loc 1 2333 0
	ldrb	r1, [sp, #7]	@ zero_extendqisi2
	strb	r1, [r3, #3]
	.loc 1 2337 0
	ldr	r1, [r7]
	.loc 1 2338 0
	str	r1, [r2, #4]
	.loc 1 2337 0
	str	r1, [r3, #8]
	.loc 1 2341 0
	mov	r0, r4
	mov	r1, #1000
	bl	TimerSetValue
.LVL263:
	.loc 1 2342 0
	mov	r0, r4
	bl	TimerStart
.LVL264:
	.loc 1 2345 0
	ldr	r3, .L316+28
	ldrb	r1, [r6]	@ zero_extendqisi2
	ldr	r3, [r3, #40]
	ldr	r0, .L316+32
	blx	r3
.LVL265:
	.loc 1 2347 0
	ldr	r2, .L316+36
	ldr	r3, [r2]
	.loc 1 2350 0
	mov	r0, r5
	.loc 1 2347 0
	orr	r3, r3, #1
	str	r3, [r2]
	.loc 1 2350 0
	add	sp, sp, #24
.LCFI34:
	@ sp needed
	pop	{r4, r5, r6, r7, r8, pc}
.L317:
	.align	2
.L316:
	.word	.LANCHOR0
	.word	.LANCHOR52
	.word	.LANCHOR58
	.word	.LANCHOR2
	.word	.LANCHOR34
	.word	.LANCHOR35
	.word	.LANCHOR27
	.word	Radio
	.word	.LANCHOR54
	.word	.LANCHOR24
.LFE26:
	.size	SendFrameOnChannel, .-SendFrameOnChannel
	.section	.text.ScheduleTx,"ax",%progbits
	.align	1
	.syntax unified
	.thumb
	.thumb_func
	.fpu fpv4-sp-d16
	.type	ScheduleTx, %function
ScheduleTx:
.LFB20:
	.loc 1 1984 0
	@ args = 0, pretend = 0, frame = 16
	@ frame_needed = 0, uses_anonymous_args = 0
.LVL266:
	push	{r4, r5, r6, r7, r8, r9, lr}
.LCFI35:
	sub	sp, sp, #28
.LCFI36:
	.loc 1 1986 0
	movs	r3, #0
	str	r3, [sp, #8]
	.loc 1 1990 0
	ldr	r3, .L332
	ldrb	r3, [r3]	@ zero_extendqisi2
	cmp	r3, #255
	.loc 1 1984 0
	mov	r8, r0
	.loc 1 1990 0
	beq	.L324
	ldr	r6, .L332+4
	.loc 1 1994 0
	cbnz	r3, .L320
	.loc 1 1996 0
	str	r3, [r6]
.L320:
	.loc 1 2000 0
	ldr	r3, .L332+8
.LBB149:
.LBB150:
	.loc 1 2068 0
	ldr	r7, .L332+12
.LBE150:
.LBE149:
	.loc 1 2000 0
	ldrb	r3, [r3]	@ zero_extendqisi2
.LVL267:
.LBB154:
.LBB151:
	.loc 1 2069 0
	ldr	r9, .L332+80
	.loc 1 2070 0
	strb	r3, [sp, #15]
	.loc 1 2071 0
	ldr	r3, .L332+16
.LVL268:
	.loc 1 2068 0
	ldrb	r2, [r7]	@ zero_extendqisi2
	.loc 1 2072 0
	ldr	r4, .L332+20
	.loc 1 2068 0
	strb	r2, [sp, #12]
	.loc 1 2071 0
	ldr	r0, [r3]
.LVL269:
	.loc 1 2069 0
	ldrb	r2, [r9]	@ zero_extendqisi2
	strb	r2, [sp, #14]
	.loc 1 2071 0
	bl	TimerGetElapsedTime
.LVL270:
	.loc 1 2072 0
	ldr	r3, [r4]
	str	r3, [sp, #20]
	.loc 1 2076 0
	ldr	r5, .L332+24
	.loc 1 2073 0
	ldr	r3, .L332+28
	.loc 1 2071 0
	str	r0, [sp, #16]
	.loc 1 2073 0
	ldrb	r3, [r3]	@ zero_extendqisi2
	.loc 1 2076 0
	ldrb	r0, [r5]	@ zero_extendqisi2
	.loc 1 2073 0
	strb	r3, [sp, #13]
	.loc 1 2076 0
	add	r1, sp, #12
	bl	RegionCalcBackOff
.LVL271:
	.loc 1 2080 0
	ldr	r3, .L332+32
.LBE151:
.LBE154:
	.loc 1 2009 0
	ldrb	r0, [r5]	@ zero_extendqisi2
.LBB155:
.LBB152:
	.loc 1 2080 0
	ldrh	r3, [r3]
	subs	r2, r3, #1
	ldr	r3, [r4]
.LBE152:
.LBE155:
	.loc 1 2003 0
	ldr	r4, .L332+36
.LBB156:
.LBB153:
	.loc 1 2080 0
	muls	r3, r2, r3
	str	r3, [r6]
.LBE153:
.LBE156:
	.loc 1 2002 0
	str	r3, [sp, #12]
	.loc 1 2003 0
	ldrb	r3, [r4, #1]	@ zero_extendqisi2
	strb	r3, [sp, #20]
	.loc 1 2004 0
	ldrb	r3, [r9]	@ zero_extendqisi2
	strb	r3, [sp, #22]
	.loc 1 2005 0
	ldrb	r3, [r7]	@ zero_extendqisi2
	strb	r3, [sp, #21]
	.loc 1 2006 0
	ldr	r3, .L332+40
	.loc 1 2009 0
	ldr	r2, .L332+44
	.loc 1 2006 0
	ldr	r3, [r3]
	str	r3, [sp, #16]
	.loc 1 2009 0
	str	r6, [sp]
	add	r3, sp, #8
	add	r1, sp, #12
	bl	RegionNextChannel
.LVL272:
	.loc 1 2011 0
	cbz	r0, .L321
	.loc 1 2013 0
	cmp	r0, #11
	bne	.L319
	.loc 1 2013 0 is_stmt 0 discriminator 1
	cmp	r8, #0
	beq	.L319
	.loc 1 2018 0 is_stmt 1
	ldr	r1, [sp, #8]
	cbz	r1, .L331
	.loc 1 2020 0
	ldr	r2, .L332+48
	.loc 1 2021 0
	ldr	r0, .L332+52
.LVL273:
	.loc 1 2020 0
	ldr	r3, [r2]
	orr	r3, r3, #16
	str	r3, [r2]
	.loc 1 2021 0
	bl	TimerSetValue
.LVL274:
	.loc 1 2022 0
	ldr	r0, .L332+52
	bl	TimerStart
.LVL275:
.L331:
	.loc 1 2024 0
	movs	r0, #0
.L319:
	.loc 1 2062 0
	add	sp, sp, #28
.LCFI37:
	@ sp needed
	pop	{r4, r5, r6, r7, r8, r9, pc}
.LVL276:
.L321:
.LCFI38:
	.loc 1 2033 0
	ldrb	r8, [r5]	@ zero_extendqisi2
	.loc 1 2034 0
	ldrsb	r3, [r4, #33]
	ldrsb	r2, [r4, #1]
	ldrb	r1, [r4, #45]	@ zero_extendqisi2
	.loc 1 2033 0
	ldr	r6, .L332+56
	.loc 1 2034 0
	mov	r0, r8
.LVL277:
	bl	RegionApplyDrOffset
.LVL278:
	.loc 1 2033 0
	ldrb	r2, [r4, #8]	@ zero_extendqisi2
	str	r6, [sp]
	sxtb	r1, r0
	ldr	r3, [r4, #4]
	mov	r0, r8
	bl	RegionComputeRxWindowParameters
.LVL279:
	.loc 1 2039 0
	ldrb	r0, [r5]	@ zero_extendqisi2
	ldr	r5, .L332+60
	ldrb	r2, [r4, #8]	@ zero_extendqisi2
	ldrsb	r1, [r4, #40]
	str	r5, [sp]
	ldr	r3, [r4, #4]
	bl	RegionComputeRxWindowParameters
.LVL280:
	.loc 1 2045 0
	ldrb	r3, [r7]	@ zero_extendqisi2
	cbnz	r3, .L322
	.loc 1 2047 0
	ldr	r2, [r6, #12]
	ldr	r3, [r4, #24]
	add	r3, r3, r2
	ldr	r2, .L332+64
	str	r3, [r2]
	.loc 1 2048 0
	ldr	r3, [r4, #28]
.L330:
	.loc 1 2057 0
	ldr	r2, [r5, #12]
	add	r3, r3, r2
	ldr	r2, .L332+68
	str	r3, [r2]
	.loc 1 2061 0
	ldr	r3, .L332+44
	ldrb	r0, [r3]	@ zero_extendqisi2
	bl	SendFrameOnChannel
.LVL281:
	b	.L319
.L322:
	.loc 1 2052 0
	ldr	r3, .L332+72
	ldrsb	r1, [r4, #1]
	ldrb	r2, [r3]	@ zero_extendqisi2
	ldr	r3, .L332+76
	ldrb	r0, [r3]	@ zero_extendqisi2
	bl	ValidatePayloadLength
.LVL282:
	cbz	r0, .L326
	.loc 1 2056 0
	ldr	r2, [r6, #12]
	ldr	r3, [r4, #16]
	add	r3, r3, r2
	ldr	r2, .L332+64
	str	r3, [r2]
	.loc 1 2057 0
	ldr	r3, [r4, #20]
	b	.L330
.LVL283:
.L324:
	.loc 1 1992 0
	movs	r0, #9
.LVL284:
	b	.L319
.LVL285:
.L326:
	.loc 1 2054 0
	movs	r0, #8
	b	.L319
.L333:
	.align	2
.L332:
	.word	.LANCHOR11
	.word	.LANCHOR59
	.word	.LANCHOR22
	.word	.LANCHOR3
	.word	.LANCHOR61
	.word	.LANCHOR58
	.word	.LANCHOR2
	.word	.LANCHOR39
	.word	.LANCHOR12
	.word	.LANCHOR0
	.word	.LANCHOR36
	.word	.LANCHOR21
	.word	.LANCHOR24
	.word	.LANCHOR62
	.word	.LANCHOR30
	.word	.LANCHOR33
	.word	.LANCHOR38
	.word	.LANCHOR37
	.word	.LANCHOR13
	.word	.LANCHOR53
	.word	.LANCHOR60
.LFE20:
	.size	ScheduleTx, .-ScheduleTx
	.section	.text.Send,"ax",%progbits
	.align	1
	.global	Send
	.syntax unified
	.thumb
	.thumb_func
	.fpu fpv4-sp-d16
	.type	Send, %function
Send:
.LFB19:
	.loc 1 1952 0
	@ args = 0, pretend = 0, frame = 8
	@ frame_needed = 0, uses_anonymous_args = 0
.LVL286:
	push	{r4, r5, lr}
.LCFI39:
	.loc 1 1961 0
	ldr	r4, .L336
	ldrb	r4, [r4]	@ zero_extendqisi2
	.loc 1 1952 0
	sub	sp, sp, #20
.LCFI40:
	.loc 1 1961 0
	mov	r5, #0
	bfi	r5, r4, #7, #1
	add	r4, sp, #16
	strb	r5, [r4, #-4]!
	.loc 1 1964 0
	str	r3, [sp]
	mov	r3, r2
.LVL287:
	mov	r2, r1
.LVL288:
	mov	r1, r4
.LVL289:
	bl	PrepareFrame
.LVL290:
	.loc 1 1967 0
	mov	r3, r0
	cbnz	r0, .L335
.LVL291:
.LBB159:
.LBB160:
	.loc 1 1975 0
	ldr	r3, .L336+4
	.loc 1 1973 0
	ldr	r2, .L336+8
	.loc 1 1975 0
	ldr	r3, [r3]
	str	r3, [r2, #12]
	.loc 1 1973 0
	strb	r0, [r2, #5]
	.loc 1 1974 0
	strb	r0, [r2, #4]
	.loc 1 1978 0
	bl	ScheduleTx
.LVL292:
	mov	r3, r0
.LVL293:
.L335:
.LBE160:
.LBE159:
	.loc 1 1981 0
	mov	r0, r3
	add	sp, sp, #20
.LCFI41:
	@ sp needed
	pop	{r4, r5, pc}
.L337:
	.align	2
.L336:
	.word	.LANCHOR40
	.word	.LANCHOR4
	.word	.LANCHOR34
.LFE19:
	.size	Send, .-Send
	.section	.text.OnTxDelayedTimerEvent,"ax",%progbits
	.align	1
	.syntax unified
	.thumb
	.thumb_func
	.fpu fpv4-sp-d16
	.type	OnTxDelayedTimerEvent, %function
OnTxDelayedTimerEvent:
.LFB7:
	.loc 1 1449 0
	@ args = 0, pretend = 0, frame = 0
	@ frame_needed = 0, uses_anonymous_args = 0
	push	{r3, lr}
.LCFI42:
	.loc 1 1450 0
	ldr	r0, .L339
	bl	TimerStop
.LVL294:
	.loc 1 1451 0
	ldr	r2, .L339+4
	ldr	r3, [r2]
	bic	r3, r3, #16
	str	r3, [r2]
	.loc 1 1454 0
	movs	r0, #1
	.loc 1 1455 0
	pop	{r3, lr}
.LCFI43:
	.loc 1 1454 0
	b	ScheduleTx
.LVL295:
.L340:
	.align	2
.L339:
	.word	.LANCHOR62
	.word	.LANCHOR24
.LFE7:
	.size	OnTxDelayedTimerEvent, .-OnTxDelayedTimerEvent
	.section	.text.OnMacStateCheckTimerEvent,"ax",%progbits
	.align	1
	.syntax unified
	.thumb
	.thumb_func
	.fpu fpv4-sp-d16
	.type	OnMacStateCheckTimerEvent, %function
OnMacStateCheckTimerEvent:
.LFB6:
	.loc 1 1247 0
	@ args = 0, pretend = 0, frame = 8
	@ frame_needed = 0, uses_anonymous_args = 0
.LVL296:
	push	{r0, r1, r4, r5, r6, r7, r8, lr}
.LCFI44:
	.loc 1 1254 0
	ldr	r4, .L416
	.loc 1 1252 0
	ldr	r0, .L416+4
	ldr	r5, .L416+8
	bl	TimerStop
.LVL297:
	.loc 1 1254 0
	ldrb	r3, [r4]	@ zero_extendqisi2
	tst	r3, #32
	beq	.L343
	.loc 1 1256 0
	ldr	r2, [r5]
	lsls	r0, r2, #25
	.loc 1 1259 0
	itt	mi
	bicmi	r2, r2, #65
	strmi	r2, [r5]
	.loc 1 1262 0
	ands	r0, r3, #9
	beq	.L372
	.loc 1 1264 0
	ldr	r2, .L416+12
	ldrb	r1, [r2, #1]	@ zero_extendqisi2
	cmp	r1, #2
	beq	.L346
	.loc 1 1265 0 discriminator 1
	ldr	r1, .L416+16
	.loc 1 1264 0 discriminator 1
	ldrb	r1, [r1, #1]	@ zero_extendqisi2
	cmp	r1, #2
	bne	.L372
.L346:
	.loc 1 1268 0
	ldr	r1, [r5]
	.loc 1 1269 0
	ldr	r6, .L416+20
	.loc 1 1268 0
	bic	r1, r1, #1
	str	r1, [r5]
	.loc 1 1269 0
	movs	r1, #0
	strb	r1, [r6]
	.loc 1 1270 0
	ldr	r6, .L416+24
	.loc 1 1271 0
	strb	r1, [r2, #4]
	.loc 1 1270 0
	ldrb	r6, [r6]	@ zero_extendqisi2
	strb	r6, [r2, #5]
	.loc 1 1272 0
	str	r1, [r2, #8]
.LVL298:
	.loc 1 1273 0
	movs	r2, #1
.LVL299:
.L345:
	.loc 1 1277 0
	ldr	r6, .L416+28
	ldrb	r1, [r6]	@ zero_extendqisi2
	cbnz	r1, .L347
	.loc 1 1277 0 is_stmt 0 discriminator 1
	cbnz	r2, .L347
	.loc 1 1279 0 is_stmt 1
	cbz	r0, .L347
	.loc 1 1281 0
	lsls	r1, r3, #28
	bpl	.L348
	.loc 1 1281 0 is_stmt 0 discriminator 1
	ldr	r1, .L416+16
	ldrb	r0, [r1]	@ zero_extendqisi2
	cmp	r0, #0
	bne	.L348
	.loc 1 1283 0 is_stmt 1
	ldrb	r3, [r1, #1]	@ zero_extendqisi2
	cbnz	r3, .L353
	.loc 1 1285 0
	ldr	r3, .L416+32
	str	r2, [r3]
	.loc 1 1286 0
	ldr	r3, .L416+36
	strb	r2, [r3]
.LVL300:
.L353:
	.loc 1 1308 0
	ldr	r3, [r5]
	bic	r3, r3, #1
	str	r3, [r5]
.L347:
	.loc 1 1320 0
	ldrb	r3, [r4]	@ zero_extendqisi2
	ldr	r0, .L416+40
	tst	r3, #2
	beq	.L354
	.loc 1 1322 0
	ldr	r1, .L416+12
	ldr	r3, .L416+24
	ldrb	r2, [r1, #4]	@ zero_extendqisi2
	ldrb	r7, [r3]	@ zero_extendqisi2
	cbnz	r2, .L355
	.loc 1 1322 0 is_stmt 0 discriminator 1
	ldr	r3, .L416+44
	ldrb	r3, [r3]	@ zero_extendqisi2
	cmp	r3, r7
	bcs	.L354
.L355:
	.loc 1 1324 0 is_stmt 1
	movs	r3, #0
	strb	r3, [r0]
	.loc 1 1325 0
	strb	r3, [r6]
	.loc 1 1326 0
	ldr	r3, .L416+48
	ldrb	r3, [r3]	@ zero_extendqisi2
	cbnz	r3, .L356
	.loc 1 1328 0
	ldr	r2, .L416+32
	ldr	r3, [r2]
	adds	r3, r3, #1
	str	r3, [r2]
.L356:
	.loc 1 1332 0
	ldr	r3, [r5]
	.loc 1 1330 0
	strb	r7, [r1, #5]
	.loc 1 1332 0
	bic	r3, r3, #1
	str	r3, [r5]
.L354:
	.loc 1 1336 0
	ldrb	r3, [r0]	@ zero_extendqisi2
	cbz	r3, .L343
	.loc 1 1336 0 is_stmt 0 discriminator 1
	ldr	r3, [r5]
	ands	r3, r3, #16
	bne	.L343
	.loc 1 1339 0 is_stmt 1
	ldr	r7, .L416+24
	ldr	r2, .L416+44
	.loc 1 1338 0
	strb	r3, [r0]
	.loc 1 1339 0
	ldrb	r2, [r2]	@ zero_extendqisi2
	ldrb	r3, [r7]	@ zero_extendqisi2
	cmp	r2, r3
	bls	.L358
	.loc 1 1339 0 is_stmt 0 discriminator 1
	cmp	r3, #8
	bhi	.L358
	.loc 1 1341 0 is_stmt 1
	adds	r3, r3, #1
	uxtb	r3, r3
	strb	r3, [r7]
	.loc 1 1343 0
	lsls	r3, r3, #31
	bpl	.L359
	.loc 1 1346 0
	ldr	r8, .L416+76
	.loc 1 1345 0
	movs	r3, #30
	strb	r3, [sp, #4]
	.loc 1 1346 0
	ldrb	r3, [r8, #44]	@ zero_extendqisi2
	strb	r3, [sp, #6]
	.loc 1 1347 0
	ldrb	r3, [r8, #1]	@ zero_extendqisi2
	strb	r3, [sp, #5]
	.loc 1 1348 0
	ldr	r3, .L416+52
	add	r1, sp, #4
	ldrb	r0, [r3]	@ zero_extendqisi2
	bl	RegionGetPhyParam
.LVL301:
	.loc 1 1349 0
	strb	r0, [r8, #1]
.L359:
	.loc 1 1352 0
	movs	r0, #1
	bl	ScheduleTx
.LVL302:
	cmp	r0, #0
	bne	.L360
	.loc 1 1354 0
	ldrb	r3, [r4]	@ zero_extendqisi2
	bfi	r3, r0, #5, #1
	strb	r3, [r4]
.L343:
	.loc 1 1391 0
	ldr	r3, [r5]
	lsls	r7, r3, #30
	.loc 1 1393 0
	itt	mi
	bicmi	r3, r3, #2
	strmi	r3, [r5]
	.loc 1 1395 0
	ldr	r2, [r5]
	cmp	r2, #0
	bne	.L362
	.loc 1 1397 0
	ldrb	r3, [r4]	@ zero_extendqisi2
	lsls	r6, r3, #31
	bpl	.L363
	.loc 1 1399 0
	bfi	r3, r2, #0, #1
	strb	r3, [r4]
	.loc 1 1400 0
	ldr	r3, .L416+56
	ldr	r0, .L416+12
	ldr	r3, [r3]
	ldr	r3, [r3]
	blx	r3
.LVL303:
.L363:
	.loc 1 1403 0
	ldrb	r3, [r4]	@ zero_extendqisi2
	lsls	r5, r3, #28
	bpl	.L364
	.loc 1 1405 0
	bfc	r3, #3, #1
	strb	r3, [r4]
	.loc 1 1406 0
	ldr	r3, .L416+56
	ldr	r0, .L416+16
	ldr	r3, [r3]
	ldr	r3, [r3, #8]
	blx	r3
.LVL304:
.L364:
.LBB165:
.LBB166:
	.loc 1 1600 0
	ldr	r3, .L416+60
	ldrb	r3, [r3]	@ zero_extendqisi2
	cbz	r3, .L365
.LBE166:
.LBE165:
.LBB167:
.LBB168:
	.loc 1 1610 0
	ldr	r3, .L416+64
	movs	r2, #4
	strb	r2, [r3]
	.loc 1 1611 0
	ldrb	r3, [r4]	@ zero_extendqisi2
	orr	r3, r3, #16
	strb	r3, [r4]
.L365:
.LBE168:
.LBE167:
	.loc 1 1416 0
	ldrb	r3, [r4]	@ zero_extendqisi2
	bfc	r3, #5, #1
	strb	r3, [r4]
.L366:
	.loc 1 1426 0
	ldrb	r3, [r4]	@ zero_extendqisi2
	lsls	r0, r3, #30
	bpl	.L367
	.loc 1 1428 0
	bfc	r3, #1, #1
	strb	r3, [r4]
	.loc 1 1429 0
	ldr	r3, .L416+68
	ldrb	r3, [r3]	@ zero_extendqisi2
	cmp	r3, #2
	bne	.L368
	.loc 1 1431 0
	bl	OpenContinuousRx2Window
.LVL305:
.L368:
	.loc 1 1433 0
	ldrb	r3, [r4]	@ zero_extendqisi2
	lsls	r1, r3, #29
	bmi	.L369
	.loc 1 1435 0
	ldr	r3, .L416+56
	ldr	r0, .L416+72
	ldr	r3, [r3]
	ldr	r3, [r3, #4]
	blx	r3
.LVL306:
.L369:
	.loc 1 1437 0
	ldrb	r3, [r4]	@ zero_extendqisi2
	bfc	r3, #2, #1
	strb	r3, [r4]
.L367:
	.loc 1 1441 0
	ldrb	r3, [r4]	@ zero_extendqisi2
	lsls	r2, r3, #27
	bpl	.L341
	.loc 1 1443 0
	bfc	r3, #4, #1
	strb	r3, [r4]
	.loc 1 1444 0
	ldr	r3, .L416+56
	ldr	r0, .L416+64
	ldr	r3, [r3]
	ldr	r3, [r3, #12]
	blx	r3
.LVL307:
.L341:
	.loc 1 1446 0
	add	sp, sp, #8
.LCFI45:
	@ sp needed
	pop	{r4, r5, r6, r7, r8, pc}
.LVL308:
.L372:
.LCFI46:
	.loc 1 1250 0
	movs	r2, #0
	b	.L345
.LVL309:
.L348:
	.loc 1 1292 0
	ldr	r1, .L416+76
	ldr	r2, .L416+36
.LVL310:
	ldrb	r0, [r1, #32]	@ zero_extendqisi2
	ldrb	r1, [r2]	@ zero_extendqisi2
	cmp	r0, r1
	and	r3, r3, #2
	bls	.L350
	.loc 1 1292 0 is_stmt 0 discriminator 1
	cbnz	r3, .L351
	.loc 1 1312 0 is_stmt 1
	ldrb	r2, [r4]	@ zero_extendqisi2
	bfi	r2, r3, #5, #1
	strb	r2, [r4]
	.loc 1 1314 0
	bl	OnTxDelayedTimerEvent
.LVL311:
	b	.L347
.L350:
	.loc 1 1294 0
	cbnz	r3, .L351
	.loc 1 1297 0
	ldr	r1, .L416+20
	strb	r3, [r1]
	.loc 1 1298 0
	ldr	r1, .L416+80
	ldr	r3, [r1]
	adds	r3, r3, #1
	str	r3, [r1]
.L351:
	.loc 1 1301 0
	movs	r3, #0
	strb	r3, [r2]
	.loc 1 1303 0
	ldr	r3, .L416+48
	ldrb	r3, [r3]	@ zero_extendqisi2
	cmp	r3, #0
	bne	.L353
	.loc 1 1305 0
	ldr	r2, .L416+32
	ldr	r3, [r2]
	adds	r3, r3, #1
	str	r3, [r2]
	b	.L353
.L360:
	.loc 1 1359 0
	ldr	r3, .L416+12
	.loc 1 1361 0
	ldr	r1, .L416+20
	.loc 1 1359 0
	movs	r2, #9
	strb	r2, [r3, #1]
	.loc 1 1361 0
	movs	r2, #0
	strb	r2, [r1]
	.loc 1 1363 0
	strb	r2, [r6]
	.loc 1 1364 0
	strb	r2, [r3, #4]
	.loc 1 1365 0
	ldrb	r2, [r7]	@ zero_extendqisi2
	.loc 1 1362 0
	ldr	r1, [r5]
	.loc 1 1365 0
	strb	r2, [r3, #5]
	.loc 1 1366 0
	ldr	r2, .L416+76
	.loc 1 1362 0
	bic	r1, r1, #1
	.loc 1 1366 0
	ldrb	r2, [r2, #1]	@ zero_extendqisi2
	.loc 1 1362 0
	str	r1, [r5]
	.loc 1 1366 0
	strb	r2, [r3, #2]
.L415:
	.loc 1 1383 0
	ldr	r3, .L416+48
	ldrb	r3, [r3]	@ zero_extendqisi2
	cmp	r3, #0
	bne	.L343
	.loc 1 1385 0
	ldr	r2, .L416+32
	ldr	r3, [r2]
	adds	r3, r3, #1
	str	r3, [r2]
	b	.L343
.L358:
	.loc 1 1375 0
	ldr	r3, .L416+52
	movs	r1, #1
	ldrb	r0, [r3]	@ zero_extendqisi2
	bl	RegionInitDefaults
.LVL312:
	.loc 1 1377 0
	ldr	r3, [r5]
	.loc 1 1379 0
	ldr	r2, .L416+20
	.loc 1 1377 0
	bic	r3, r3, #1
	str	r3, [r5]
	.loc 1 1379 0
	movs	r3, #0
	strb	r3, [r2]
	.loc 1 1381 0
	ldr	r2, .L416+12
	.loc 1 1380 0
	strb	r3, [r6]
	.loc 1 1381 0
	strb	r3, [r2, #4]
	.loc 1 1382 0
	ldrb	r3, [r7]	@ zero_extendqisi2
	strb	r3, [r2, #5]
	b	.L415
.L417:
	.align	2
.L416:
	.word	.LANCHOR26
	.word	.LANCHOR27
	.word	.LANCHOR24
	.word	.LANCHOR34
	.word	.LANCHOR35
	.word	.LANCHOR13
	.word	.LANCHOR9
	.word	.LANCHOR17
	.word	.LANCHOR4
	.word	.LANCHOR7
	.word	.LANCHOR10
	.word	.LANCHOR8
	.word	.LANCHOR63
	.word	.LANCHOR2
	.word	.LANCHOR64
	.word	.LANCHOR14
	.word	.LANCHOR42
	.word	.LANCHOR25
	.word	.LANCHOR31
	.word	.LANCHOR0
	.word	.LANCHOR6
.L362:
	.loc 1 1421 0
	mov	r1, #1000
	ldr	r0, .L418
	bl	TimerSetValue
.LVL313:
	.loc 1 1422 0
	ldr	r0, .L418
	bl	TimerStart
.LVL314:
	b	.L366
.L419:
	.align	2
.L418:
	.word	.LANCHOR27
.LFE6:
	.size	OnMacStateCheckTimerEvent, .-OnMacStateCheckTimerEvent
	.section	.text.SetTxContinuousWave,"ax",%progbits
	.align	1
	.global	SetTxContinuousWave
	.syntax unified
	.thumb
	.thumb_func
	.fpu fpv4-sp-d16
	.type	SetTxContinuousWave, %function
SetTxContinuousWave:
.LFB27:
	.loc 1 2353 0
	@ args = 0, pretend = 0, frame = 16
	@ frame_needed = 0, uses_anonymous_args = 0
.LVL315:
	push	{r0, r1, r2, r3, r4, lr}
.LCFI47:
	.loc 1 2356 0
	ldr	r3, .L421
	.loc 1 2366 0
	ldr	r4, .L421+4
	.loc 1 2356 0
	ldrb	r3, [r3]	@ zero_extendqisi2
	strb	r3, [sp]
	.loc 1 2357 0
	ldr	r3, .L421+8
	.loc 1 2361 0
	strh	r0, [sp, #12]	@ movhi
	.loc 1 2357 0
	ldrb	r2, [r3, #1]	@ zero_extendqisi2
	strb	r2, [sp, #1]
	.loc 1 2358 0
	ldrb	r2, [r3]	@ zero_extendqisi2
	strb	r2, [sp, #2]
	.loc 1 2359 0
	ldr	r2, [r3, #48]	@ float
	.loc 1 2360 0
	ldr	r3, [r3, #52]	@ float
	str	r3, [sp, #8]	@ float
	.loc 1 2363 0
	ldr	r3, .L421+12
	.loc 1 2359 0
	str	r2, [sp, #4]	@ float
	.loc 1 2363 0
	ldrb	r0, [r3]	@ zero_extendqisi2
.LVL316:
	mov	r1, sp
	bl	RegionSetContinuousWave
.LVL317:
	.loc 1 2366 0
	mov	r1, #1000
	mov	r0, r4
	bl	TimerSetValue
.LVL318:
	.loc 1 2367 0
	mov	r0, r4
	bl	TimerStart
.LVL319:
	.loc 1 2369 0
	ldr	r2, .L421+16
	ldr	r3, [r2]
	.loc 1 2372 0
	movs	r0, #0
	.loc 1 2369 0
	orr	r3, r3, #1
	str	r3, [r2]
	.loc 1 2372 0
	add	sp, sp, #16
.LCFI48:
	@ sp needed
	pop	{r4, pc}
.L422:
	.align	2
.L421:
	.word	.LANCHOR21
	.word	.LANCHOR27
	.word	.LANCHOR0
	.word	.LANCHOR2
	.word	.LANCHOR24
.LFE27:
	.size	SetTxContinuousWave, .-SetTxContinuousWave
	.section	.text.SetTxContinuousWave1,"ax",%progbits
	.align	1
	.global	SetTxContinuousWave1
	.syntax unified
	.thumb
	.thumb_func
	.fpu fpv4-sp-d16
	.type	SetTxContinuousWave1, %function
SetTxContinuousWave1:
.LFB28:
	.loc 1 2375 0
	@ args = 0, pretend = 0, frame = 0
	@ frame_needed = 0, uses_anonymous_args = 0
.LVL320:
	push	{r4, lr}
.LCFI49:
	.loc 1 2376 0
	ldr	r3, .L424
	.loc 1 2375 0
	mov	r4, r1
	.loc 1 2376 0
	sxtb	r1, r2
.LVL321:
	mov	r2, r0
.LVL322:
	mov	r0, r4
.LVL323:
	.loc 1 2379 0
	ldr	r4, .L424+4
.LVL324:
	.loc 1 2376 0
	ldr	r3, [r3, #60]
	blx	r3
.LVL325:
	.loc 1 2379 0
	mov	r1, #1000
	mov	r0, r4
	bl	TimerSetValue
.LVL326:
	.loc 1 2380 0
	mov	r0, r4
	bl	TimerStart
.LVL327:
	.loc 1 2382 0
	ldr	r2, .L424+8
	ldr	r3, [r2]
	orr	r3, r3, #1
	str	r3, [r2]
	.loc 1 2385 0
	movs	r0, #0
	pop	{r4, pc}
.L425:
	.align	2
.L424:
	.word	Radio
	.word	.LANCHOR27
	.word	.LANCHOR24
.LFE28:
	.size	SetTxContinuousWave1, .-SetTxContinuousWave1
	.section	.text.LoRaMacInitialization,"ax",%progbits
	.align	1
	.global	LoRaMacInitialization
	.syntax unified
	.thumb
	.thumb_func
	.fpu fpv4-sp-d16
	.type	LoRaMacInitialization, %function
LoRaMacInitialization:
.LFB29:
	.loc 1 2388 0
	@ args = 0, pretend = 0, frame = 8
	@ frame_needed = 0, uses_anonymous_args = 0
.LVL328:
	push	{r0, r1, r4, r5, r6, r7, r8, lr}
.LCFI50:
	.loc 1 2388 0
	mov	r5, r1
	mov	r8, r2
	.loc 1 2392 0
	mov	r4, r0
	cmp	r0, #0
	beq	.L432
	.loc 1 2397 0
	ldr	r3, [r0]
	cmp	r3, #0
	beq	.L432
	.loc 1 2397 0 is_stmt 0 discriminator 1
	ldr	r3, [r0, #4]
	cmp	r3, #0
	beq	.L432
	.loc 1 2398 0 is_stmt 1
	ldr	r3, [r0, #8]
	cmp	r3, #0
	beq	.L432
	.loc 1 2399 0
	ldr	r3, [r0, #12]
	cmp	r3, #0
	beq	.L432
	.loc 1 2405 0
	mov	r0, r2
.LVL329:
	bl	RegionIsActive
.LVL330:
	cmp	r0, #0
	beq	.L433
	.loc 1 2410 0
	ldr	r3, .L434
	.loc 1 2412 0
	ldr	r7, .L434+4
	.loc 1 2410 0
	str	r4, [r3]
	.loc 1 2411 0
	ldr	r3, .L434+8
	.loc 1 2412 0
	strb	r8, [r7]
	.loc 1 2411 0
	str	r5, [r3]
	.loc 1 2414 0
	ldr	r3, .L434+12
	.loc 1 2432 0
	ldr	r4, .L434+16
.LVL331:
	.loc 1 2414 0
	movs	r6, #0
	strb	r6, [r3]
	.loc 1 2416 0
	ldr	r3, .L434+20
	strb	r6, [r3]
	.loc 1 2417 0
	ldr	r3, .L434+24
	str	r6, [r3]
	.loc 1 2419 0
	ldr	r3, .L434+28
	strb	r6, [r3]
	.loc 1 2422 0
	ldr	r3, .L434+32
	str	r6, [r3]
	.loc 1 2423 0
	ldr	r3, .L434+36
	.loc 1 2426 0
	add	r5, sp, #8
.LVL332:
	.loc 1 2423 0
	str	r6, [r3]
	.loc 1 2426 0
	movs	r3, #11
	strb	r3, [r5, #-4]!
	.loc 1 2427 0
	mov	r0, r8
	mov	r1, r5
	bl	RegionGetPhyParam
.LVL333:
	.loc 1 2428 0
	ldr	r3, .L434+40
	subs	r0, r0, r6
.LVL334:
	it	ne
	movne	r0, #1
	strb	r0, [r3]
	.loc 1 2431 0
	mov	r1, r5
	.loc 1 2430 0
	movs	r3, #8
	.loc 1 2431 0
	ldrb	r0, [r7]	@ zero_extendqisi2
	.loc 1 2430 0
	strb	r3, [sp, #4]
	.loc 1 2431 0
	bl	RegionGetPhyParam
.LVL335:
	.loc 1 2434 0
	movs	r3, #5
	.loc 1 2432 0
	strb	r0, [r4]
	.loc 1 2435 0
	mov	r1, r5
	ldrb	r0, [r7]	@ zero_extendqisi2
.LVL336:
	.loc 1 2434 0
	strb	r3, [sp, #4]
	.loc 1 2435 0
	bl	RegionGetPhyParam
.LVL337:
	.loc 1 2438 0
	movs	r3, #12
	.loc 1 2436 0
	strb	r0, [r4, #1]
	.loc 1 2439 0
	mov	r1, r5
	ldrb	r0, [r7]	@ zero_extendqisi2
.LVL338:
	.loc 1 2438 0
	strb	r3, [sp, #4]
	.loc 1 2439 0
	bl	RegionGetPhyParam
.LVL339:
	.loc 1 2442 0
	movs	r3, #13
	.loc 1 2440 0
	str	r0, [r4, #12]
	.loc 1 2443 0
	mov	r1, r5
	ldrb	r0, [r7]	@ zero_extendqisi2
.LVL340:
	.loc 1 2442 0
	strb	r3, [sp, #4]
	.loc 1 2443 0
	bl	RegionGetPhyParam
.LVL341:
	.loc 1 2446 0
	movs	r3, #14
	.loc 1 2444 0
	str	r0, [r4, #16]
	.loc 1 2447 0
	mov	r1, r5
	ldrb	r0, [r7]	@ zero_extendqisi2
.LVL342:
	.loc 1 2446 0
	strb	r3, [sp, #4]
	.loc 1 2447 0
	bl	RegionGetPhyParam
.LVL343:
	.loc 1 2450 0
	movs	r3, #15
	.loc 1 2448 0
	str	r0, [r4, #20]
	.loc 1 2451 0
	mov	r1, r5
	ldrb	r0, [r7]	@ zero_extendqisi2
.LVL344:
	.loc 1 2450 0
	strb	r3, [sp, #4]
	.loc 1 2451 0
	bl	RegionGetPhyParam
.LVL345:
	.loc 1 2454 0
	movs	r3, #16
	.loc 1 2452 0
	str	r0, [r4, #24]
	.loc 1 2455 0
	mov	r1, r5
	ldrb	r0, [r7]	@ zero_extendqisi2
.LVL346:
	.loc 1 2454 0
	strb	r3, [sp, #4]
	.loc 1 2455 0
	bl	RegionGetPhyParam
.LVL347:
	.loc 1 2458 0
	movs	r3, #19
	.loc 1 2456 0
	str	r0, [r4, #28]
	.loc 1 2459 0
	mov	r1, r5
	ldrb	r0, [r7]	@ zero_extendqisi2
.LVL348:
	.loc 1 2458 0
	strb	r3, [sp, #4]
	.loc 1 2459 0
	bl	RegionGetPhyParam
.LVL349:
	.loc 1 2462 0
	movs	r3, #20
	.loc 1 2460 0
	strb	r0, [r4, #33]
	.loc 1 2463 0
	mov	r1, r5
	ldrb	r0, [r7]	@ zero_extendqisi2
.LVL350:
	.loc 1 2462 0
	strb	r3, [sp, #4]
	.loc 1 2463 0
	bl	RegionGetPhyParam
.LVL351:
	.loc 1 2466 0
	movs	r3, #21
	.loc 1 2464 0
	str	r0, [r4, #36]
	.loc 1 2467 0
	mov	r1, r5
	ldrb	r0, [r7]	@ zero_extendqisi2
.LVL352:
	.loc 1 2466 0
	strb	r3, [sp, #4]
	.loc 1 2467 0
	bl	RegionGetPhyParam
.LVL353:
	.loc 1 2470 0
	movs	r3, #26
	.loc 1 2468 0
	strb	r0, [r4, #40]
	.loc 1 2471 0
	mov	r1, r5
	ldrb	r0, [r7]	@ zero_extendqisi2
.LVL354:
	.loc 1 2470 0
	strb	r3, [sp, #4]
	.loc 1 2471 0
	bl	RegionGetPhyParam
.LVL355:
	.loc 1 2474 0
	movs	r3, #27
	.loc 1 2472 0
	strb	r0, [r4, #44]
	.loc 1 2475 0
	mov	r1, r5
	ldrb	r0, [r7]	@ zero_extendqisi2
.LVL356:
	.loc 1 2474 0
	strb	r3, [sp, #4]
	.loc 1 2475 0
	bl	RegionGetPhyParam
.LVL357:
	.loc 1 2478 0
	movs	r3, #28
	.loc 1 2476 0
	strb	r0, [r4, #45]
	.loc 1 2479 0
	mov	r1, r5
	ldrb	r0, [r7]	@ zero_extendqisi2
.LVL358:
	.loc 1 2478 0
	strb	r3, [sp, #4]
	.loc 1 2479 0
	bl	RegionGetPhyParam
.LVL359:
	.loc 1 2482 0
	movs	r3, #29
	.loc 1 2480 0
	str	r0, [r4, #48]	@ float
	.loc 1 2483 0
	mov	r1, r5
	ldrb	r0, [r7]	@ zero_extendqisi2
.LVL360:
	.loc 1 2482 0
	strb	r3, [sp, #4]
	.loc 1 2483 0
	bl	RegionGetPhyParam
.LVL361:
	.loc 1 2486 0
	mov	r1, r6
	.loc 1 2484 0
	str	r0, [r4, #52]	@ float
	.loc 1 2486 0
	ldrb	r0, [r7]	@ zero_extendqisi2
.LVL362:
	bl	RegionInitDefaults
.LVL363:
	.loc 1 2493 0
	ldr	r3, .L434+44
	.loc 1 2491 0
	movs	r2, #6
	.loc 1 2494 0
	strb	r2, [r3, #8]
	.loc 1 2491 0
	strb	r2, [r4, #8]
	.loc 1 2495 0
	ldr	r2, [r4, #12]
	str	r2, [r3, #12]
	.loc 1 2496 0
	ldr	r2, [r4, #16]
	str	r2, [r3, #16]
	.loc 1 2497 0
	ldr	r2, [r4, #20]
	str	r2, [r3, #20]
	.loc 1 2498 0
	ldr	r2, [r4, #24]
	str	r2, [r3, #24]
	.loc 1 2489 0
	movs	r5, #1
	.loc 1 2499 0
	ldr	r2, [r4, #28]
	str	r2, [r3, #28]
	.loc 1 2490 0
	movs	r1, #10
	.loc 1 2493 0
	str	r1, [r3, #4]
	.loc 1 2500 0
	strb	r5, [r3, #32]
	.loc 1 2490 0
	str	r1, [r4, #4]
	.loc 1 2489 0
	strb	r5, [r4, #32]
	.loc 1 2502 0
	bl	ResetMacParameters
.LVL364:
	.loc 1 2505 0
	ldr	r1, .L434+48
	ldr	r0, .L434+52
	.loc 1 2522 0
	ldr	r4, .L434+56
	.loc 1 2505 0
	bl	TimerInit
.LVL365:
	.loc 1 2506 0
	mov	r1, #1000
	ldr	r0, .L434+52
	bl	TimerSetValue
.LVL366:
	.loc 1 2508 0
	ldr	r1, .L434+60
	ldr	r0, .L434+64
	bl	TimerInit
.LVL367:
	.loc 1 2509 0
	ldr	r1, .L434+68
	ldr	r0, .L434+72
	bl	TimerInit
.LVL368:
	.loc 1 2510 0
	ldr	r1, .L434+76
	ldr	r0, .L434+80
	bl	TimerInit
.LVL369:
	.loc 1 2511 0
	ldr	r1, .L434+84
	ldr	r0, .L434+88
	bl	TimerInit
.LVL370:
	.loc 1 2514 0
	bl	TimerGetCurrentTime
.LVL371:
	ldr	r3, .L434+92
	str	r0, [r3]
	.loc 1 2517 0
	ldr	r0, .L434+96
	ldr	r3, .L434+100
	str	r3, [r0]
	.loc 1 2518 0
	ldr	r3, .L434+104
	str	r3, [r0, #8]
	.loc 1 2519 0
	ldr	r3, .L434+108
	str	r3, [r0, #16]
	.loc 1 2520 0
	ldr	r3, .L434+112
	str	r3, [r0, #4]
	.loc 1 2521 0
	ldr	r3, .L434+116
	str	r3, [r0, #12]
	.loc 1 2522 0
	ldr	r3, [r4]
	blx	r3
.LVL372:
	.loc 1 2525 0
	ldr	r3, [r4, #20]
	blx	r3
.LVL373:
	bl	srand1
.LVL374:
	.loc 1 2527 0
	ldr	r3, .L434+120
	.loc 1 2528 0
	mov	r0, r5
	.loc 1 2527 0
	strb	r5, [r3]
	.loc 1 2528 0
	ldr	r3, [r4, #88]
	blx	r3
.LVL375:
	.loc 1 2529 0
	ldr	r3, [r4, #44]
	blx	r3
.LVL376:
	.loc 1 2531 0
	mov	r0, r6
.L427:
	.loc 1 2532 0
	add	sp, sp, #8
.LCFI51:
	@ sp needed
	pop	{r4, r5, r6, r7, r8, pc}
.LVL377:
.L432:
.LCFI52:
	.loc 1 2394 0
	movs	r0, #3
.LVL378:
	b	.L427
.LVL379:
.L433:
	.loc 1 2407 0
	movs	r0, #10
	b	.L427
.L435:
	.align	2
.L434:
	.word	.LANCHOR64
	.word	.LANCHOR2
	.word	.LANCHOR43
	.word	.LANCHOR26
	.word	.LANCHOR16
	.word	.LANCHOR25
	.word	.LANCHOR24
	.word	.LANCHOR1
	.word	.LANCHOR36
	.word	.LANCHOR59
	.word	.LANCHOR60
	.word	.LANCHOR0
	.word	OnMacStateCheckTimerEvent
	.word	.LANCHOR27
	.word	Radio
	.word	OnTxDelayedTimerEvent
	.word	.LANCHOR62
	.word	OnRxWindow1TimerEvent
	.word	.LANCHOR28
	.word	OnRxWindow2TimerEvent
	.word	.LANCHOR32
	.word	OnAckTimeoutTimerEvent
	.word	.LANCHOR23
	.word	.LANCHOR61
	.word	.LANCHOR65
	.word	OnRadioTxDone
	.word	OnRadioRxDone
	.word	OnRadioRxError
	.word	OnRadioTxTimeout
	.word	OnRadioRxTimeout
	.word	.LANCHOR66
.LFE29:
	.size	LoRaMacInitialization, .-LoRaMacInitialization
	.section	.text.LoRaMacQueryTxPossible,"ax",%progbits
	.align	1
	.global	LoRaMacQueryTxPossible
	.syntax unified
	.thumb
	.thumb_func
	.fpu fpv4-sp-d16
	.type	LoRaMacQueryTxPossible, %function
LoRaMacQueryTxPossible:
.LFB30:
	.loc 1 2535 0
	@ args = 0, pretend = 0, frame = 24
	@ frame_needed = 0, uses_anonymous_args = 0
.LVL380:
	push	{r4, r5, r6, r7, r8, r9, r10, fp, lr}
.LCFI53:
	.loc 1 2539 0
	ldr	r3, .L446
	.loc 1 2535 0
	sub	sp, sp, #36
.LCFI54:
	.loc 1 2539 0
	ldrb	r2, [r3, #1]	@ zero_extendqisi2
	.loc 1 2540 0
	ldrb	r3, [r3]	@ zero_extendqisi2
	.loc 1 2539 0
	strb	r2, [sp, #14]
	.loc 1 2535 0
	mov	r6, r0
	.loc 1 2540 0
	strb	r3, [sp, #15]
.LVL381:
	.loc 1 2543 0
	mov	r7, r1
	cmp	r1, #0
	beq	.L441
	.loc 1 2549 0
	movs	r3, #0
	strb	r3, [sp, #20]
	.loc 1 2550 0
	ldr	r3, .L446+4
	.loc 1 2552 0
	ldr	r5, .L446+8
	.loc 1 2550 0
	ldrb	r3, [r3]	@ zero_extendqisi2
	strb	r3, [sp, #21]
	.loc 1 2551 0
	ldr	r3, .L446+12
	.loc 1 2558 0
	ldr	r9, .L446+20
	.loc 1 2551 0
	ldr	r2, [r3]
	str	r2, [sp, #24]
	.loc 1 2552 0
	ldrb	r2, [r5, #1]	@ zero_extendqisi2
	strb	r2, [sp, #28]
	.loc 1 2553 0
	ldrb	r2, [r5]	@ zero_extendqisi2
	strb	r2, [sp, #29]
	.loc 1 2541 0
	ldr	r8, .L446+24
	.loc 1 2554 0
	ldrb	r2, [r5, #44]	@ zero_extendqisi2
	.loc 1 2541 0
	ldr	fp, .L446+28
	.loc 1 2554 0
	strb	r2, [sp, #30]
	.loc 1 2558 0
	str	r3, [sp]
	ldrb	r0, [r9]	@ zero_extendqisi2
.LVL382:
	.loc 1 2541 0
	ldrb	r4, [r8]	@ zero_extendqisi2
	ldrb	r10, [fp]	@ zero_extendqisi2
	.loc 1 2558 0
	add	r3, sp, #15
	add	r2, sp, #14
	add	r1, sp, #20
.LVL383:
	bl	RegionAdrNext
.LVL384:
	.loc 1 2561 0
	ldrb	r3, [r5, #44]	@ zero_extendqisi2
	strb	r3, [sp, #18]
	.loc 1 2562 0
	ldrb	r3, [sp, #14]	@ zero_extendqisi2
	strb	r3, [sp, #17]
	.loc 1 2563 0
	movs	r3, #9
	strb	r3, [sp, #16]
	.loc 1 2566 0
	ldr	r3, .L446+16
	ldrb	r3, [r3]	@ zero_extendqisi2
	cbz	r3, .L438
	.loc 1 2568 0
	movs	r3, #10
	strb	r3, [sp, #16]
.L438:
	.loc 1 2570 0
	add	r1, sp, #16
	ldrb	r0, [r9]	@ zero_extendqisi2
	bl	RegionGetPhyParam
.LVL385:
	.loc 1 2541 0
	add	r4, r4, r10
.LVL386:
	uxtb	r4, r4
	.loc 1 2571 0
	uxtb	r0, r0
	.loc 1 2574 0
	cmp	r0, r4
	.loc 1 2584 0
	it	cc
	movcc	r4, #0
	.loc 1 2571 0
	strb	r0, [r7, #1]
	.loc 1 2576 0
	itte	cs
	subcs	r0, r0, r4
	strbcs	r0, [r7]
	.loc 1 2580 0
	strbcc	r0, [r7]
.LVL387:
	.loc 1 2589 0
	mov	r2, r4
	ldrsb	r1, [sp, #14]
	.loc 1 2584 0
	it	cc
	strbcc	r4, [r8]
	.loc 1 2589 0
	mov	r0, r6
	.loc 1 2585 0
	it	cc
	strbcc	r4, [fp]
.LVL388:
	.loc 1 2589 0
	bl	ValidatePayloadLength
.LVL389:
	.loc 1 2593 0
	cmp	r0, #0
	ite	eq
	moveq	r0, #8
	movne	r0, #0
.LVL390:
.L437:
	.loc 1 2594 0
	add	sp, sp, #36
.LCFI55:
	@ sp needed
	pop	{r4, r5, r6, r7, r8, r9, r10, fp, pc}
.LVL391:
.L441:
.LCFI56:
	.loc 1 2545 0
	movs	r0, #3
.LVL392:
	b	.L437
.L447:
	.align	2
.L446:
	.word	.LANCHOR16
	.word	.LANCHOR40
	.word	.LANCHOR0
	.word	.LANCHOR6
	.word	.LANCHOR1
	.word	.LANCHOR2
	.word	.LANCHOR13
	.word	.LANCHOR14
.LFE30:
	.size	LoRaMacQueryTxPossible, .-LoRaMacQueryTxPossible
	.section	.text.LoRaMacMibGetRequestConfirm,"ax",%progbits
	.align	1
	.global	LoRaMacMibGetRequestConfirm
	.syntax unified
	.thumb
	.thumb_func
	.fpu fpv4-sp-d16
	.type	LoRaMacMibGetRequestConfirm, %function
LoRaMacMibGetRequestConfirm:
.LFB31:
	.loc 1 2597 0
	@ args = 0, pretend = 0, frame = 8
	@ frame_needed = 0, uses_anonymous_args = 0
.LVL393:
	push	{r0, r1, r4, lr}
.LCFI57:
	.loc 1 2602 0
	mov	r4, r0
	cmp	r0, #0
	beq	.L482
	.loc 1 2607 0
	ldrb	r3, [r0]	@ zero_extendqisi2
	cmp	r3, #30
	bhi	.L483
	tbb	[pc, r3]
.L451:
	.byte	(.L450-.L451)/2
	.byte	(.L452-.L451)/2
	.byte	(.L453-.L451)/2
	.byte	(.L454-.L451)/2
	.byte	(.L455-.L451)/2
	.byte	(.L456-.L451)/2
	.byte	(.L457-.L451)/2
	.byte	(.L458-.L451)/2
	.byte	(.L459-.L451)/2
	.byte	(.L460-.L451)/2
	.byte	(.L461-.L451)/2
	.byte	(.L462-.L451)/2
	.byte	(.L463-.L451)/2
	.byte	(.L464-.L451)/2
	.byte	(.L465-.L451)/2
	.byte	(.L466-.L451)/2
	.byte	(.L467-.L451)/2
	.byte	(.L468-.L451)/2
	.byte	(.L469-.L451)/2
	.byte	(.L470-.L451)/2
	.byte	(.L471-.L451)/2
	.byte	(.L472-.L451)/2
	.byte	(.L473-.L451)/2
	.byte	(.L474-.L451)/2
	.byte	(.L475-.L451)/2
	.byte	(.L476-.L451)/2
	.byte	(.L477-.L451)/2
	.byte	(.L478-.L451)/2
	.byte	(.L479-.L451)/2
	.byte	(.L480-.L451)/2
	.byte	(.L481-.L451)/2
	.p2align 1
.L450:
	.loc 1 2611 0
	ldr	r3, .L493
.L486:
	.loc 1 2621 0
	ldrb	r3, [r3]	@ zero_extendqisi2
.L487:
	strb	r3, [r4, #4]
.LVL394:
.L485:
	.loc 1 2598 0
	movs	r0, #0
.L449:
.LVL395:
	.loc 1 2779 0
	add	sp, sp, #8
.LCFI58:
	@ sp needed
	pop	{r4, pc}
.LVL396:
.L452:
.LCFI59:
	.loc 1 2616 0
	ldr	r3, .L493+4
	b	.L486
.L453:
	.loc 1 2621 0
	ldr	r3, .L493+8
	b	.L486
.L454:
	.loc 1 2626 0
	ldr	r3, .L493+12
.L492:
	.loc 1 2750 0
	ldr	r3, [r3]
	b	.L488
.L455:
	.loc 1 2631 0
	ldr	r3, .L493+16
	b	.L492
.L456:
	.loc 1 2636 0
	ldr	r3, .L493+20
.L488:
	.loc 1 2755 0
	str	r3, [r4, #4]
	b	.L485
.L457:
	.loc 1 2641 0
	ldr	r3, .L493+24
	b	.L488
.L458:
	.loc 1 2646 0
	ldr	r3, .L493+28
	b	.L486
.L459:
	.loc 1 2651 0
	ldr	r3, .L493+32
	b	.L486
.L460:
	.loc 1 2656 0
	add	r1, sp, #8
	movs	r3, #25
.L489:
	.loc 1 2682 0
	strb	r3, [r1, #-4]!
	.loc 1 2683 0
	ldr	r3, .L493+36
	ldrb	r0, [r3]	@ zero_extendqisi2
.LVL397:
	bl	RegionGetPhyParam
.LVL398:
	.loc 1 2685 0
	str	r0, [r4, #4]
	b	.L485
.LVL399:
.L461:
	.loc 1 2664 0
	ldr	r3, .L493+40
	adds	r4, r4, #4
.L490:
	.loc 1 2669 0
	ldm	r3, {r0, r1}
.LVL400:
	stm	r4, {r0, r1}
	b	.L485
.LVL401:
.L462:
	adds	r4, r4, #4
	ldr	r3, .L493+44
	b	.L490
.L464:
	.loc 1 2674 0
	add	r1, sp, #8
	movs	r3, #23
	b	.L489
.L463:
	.loc 1 2682 0
	add	r1, sp, #8
	movs	r3, #22
	b	.L489
.L465:
	.loc 1 2690 0
	ldr	r3, .L493+48
	ldrb	r3, [r3, #32]	@ zero_extendqisi2
	b	.L487
.L466:
	.loc 1 2695 0
	ldr	r3, .L493+48
	ldr	r3, [r3, #12]
	b	.L488
.L467:
	.loc 1 2700 0
	ldr	r3, .L493+48
	ldr	r3, [r3, #16]
	b	.L488
.L468:
	.loc 1 2705 0
	ldr	r3, .L493+48
	ldr	r3, [r3, #20]
	b	.L488
.L469:
	.loc 1 2710 0
	ldr	r3, .L493+48
	ldr	r3, [r3, #24]
	b	.L488
.L470:
	.loc 1 2715 0
	ldr	r3, .L493+48
	ldr	r3, [r3, #28]
	b	.L488
.L471:
	.loc 1 2720 0
	ldr	r3, .L493+52
.L491:
	.loc 1 2725 0
	ldrb	r3, [r3, #1]	@ zero_extendqisi2
	b	.L487
.L472:
	ldr	r3, .L493+48
	b	.L491
.L474:
	.loc 1 2730 0
	ldr	r3, .L493+52
	b	.L486
.L473:
	.loc 1 2735 0
	ldr	r3, .L493+48
	b	.L486
.L475:
	.loc 1 2740 0
	ldr	r3, .L493+56
	b	.L492
.L476:
	.loc 1 2745 0
	ldr	r3, .L493+60
	b	.L492
.L477:
	.loc 1 2750 0
	ldr	r3, .L493+64
	b	.L492
.L478:
	.loc 1 2755 0
	ldr	r3, .L493+48
	ldr	r3, [r3, #4]
	b	.L488
.L479:
	.loc 1 2760 0
	ldr	r3, .L493+48
	ldrb	r3, [r3, #8]	@ zero_extendqisi2
	b	.L487
.L480:
	.loc 1 2765 0
	ldr	r3, .L493+48
.L484:
	.loc 1 2770 0
	ldr	r3, [r3, #52]	@ float
	str	r3, [r4, #4]	@ float
	b	.L485
.L481:
	ldr	r3, .L493+52
	b	.L484
.L482:
	.loc 1 2604 0
	movs	r0, #3
.LVL402:
	b	.L449
.LVL403:
.L483:
	.loc 1 2774 0
	movs	r0, #2
.LVL404:
	b	.L449
.L494:
	.align	2
.L493:
	.word	.LANCHOR25
	.word	.LANCHOR3
	.word	.LANCHOR40
	.word	.LANCHOR50
	.word	.LANCHOR51
	.word	.LANCHOR46
	.word	.LANCHOR45
	.word	.LANCHOR66
	.word	.LANCHOR1
	.word	.LANCHOR2
	.word	.LANCHOR0+36
	.word	.LANCHOR16+36
	.word	.LANCHOR0
	.word	.LANCHOR16
	.word	.LANCHOR4
	.word	.LANCHOR5
	.word	.LANCHOR20
.LFE31:
	.size	LoRaMacMibGetRequestConfirm, .-LoRaMacMibGetRequestConfirm
	.section	.text.LoRaMacMibSetRequestConfirm,"ax",%progbits
	.align	1
	.global	LoRaMacMibSetRequestConfirm
	.syntax unified
	.thumb
	.thumb_func
	.fpu fpv4-sp-d16
	.type	LoRaMacMibSetRequestConfirm, %function
LoRaMacMibSetRequestConfirm:
.LFB32:
	.loc 1 2782 0
	@ args = 0, pretend = 0, frame = 8
	@ frame_needed = 0, uses_anonymous_args = 0
.LVL405:
	push	{r0, r1, r2, r3, r4, r5, r6, lr}
.LCFI60:
	.loc 1 2787 0
	mov	r4, r0
	cmp	r0, #0
	beq	.L496
	.loc 1 2791 0
	ldr	r3, .L573
	ldr	r3, [r3]
	lsls	r3, r3, #31
	bmi	.L532
	.loc 1 2796 0
	ldrb	r3, [r0]	@ zero_extendqisi2
	cmp	r3, #30
	bhi	.L533
	tbh	[pc, r3, lsl #1]
.L499:
	.2byte	(.L498-.L499)/2
	.2byte	(.L500-.L499)/2
	.2byte	(.L501-.L499)/2
	.2byte	(.L502-.L499)/2
	.2byte	(.L503-.L499)/2
	.2byte	(.L504-.L499)/2
	.2byte	(.L505-.L499)/2
	.2byte	(.L506-.L499)/2
	.2byte	(.L507-.L499)/2
	.2byte	(.L533-.L499)/2
	.2byte	(.L508-.L499)/2
	.2byte	(.L509-.L499)/2
	.2byte	(.L510-.L499)/2
	.2byte	(.L511-.L499)/2
	.2byte	(.L512-.L499)/2
	.2byte	(.L513-.L499)/2
	.2byte	(.L514-.L499)/2
	.2byte	(.L515-.L499)/2
	.2byte	(.L516-.L499)/2
	.2byte	(.L517-.L499)/2
	.2byte	(.L518-.L499)/2
	.2byte	(.L519-.L499)/2
	.2byte	(.L520-.L499)/2
	.2byte	(.L521-.L499)/2
	.2byte	(.L522-.L499)/2
	.2byte	(.L523-.L499)/2
	.2byte	(.L533-.L499)/2
	.2byte	(.L524-.L499)/2
	.2byte	(.L525-.L499)/2
	.2byte	(.L526-.L499)/2
	.2byte	(.L527-.L499)/2
	.p2align 1
.L498:
	.loc 1 2800 0
	ldrb	r5, [r0, #4]	@ zero_extendqisi2
	ldr	r3, .L573+4
	movs	r4, #0
	strb	r5, [r3]
	.loc 1 2801 0
	cbz	r5, .L528
	cmp	r5, #2
	beq	.L529
.LVL406:
.L565:
	.loc 1 2783 0
	mov	r0, r4
	b	.L497
.LVL407:
.L528:
	.loc 1 2806 0
	ldr	r3, .L573+8
	ldr	r3, [r3, #44]
	blx	r3
.LVL408:
.L568:
	.loc 1 2783 0
	movs	r0, #0
	.loc 1 3074 0
	b	.L497
.LVL409:
.L529:
	.loc 1 2816 0
	ldr	r3, .L573+12
	.loc 1 2820 0
	ldr	r5, .L573+16
	.loc 1 2816 0
	strb	r4, [r3]
	.loc 1 2818 0
	ldr	r3, .L573+8
	ldr	r3, [r3, #44]
	blx	r3
.LVL410:
	.loc 1 2820 0
	ldr	r3, .L573+20
	ldr	r0, .L573+24
	ldrb	r2, [r3, #8]	@ zero_extendqisi2
	ldrsb	r1, [r3, #40]
	ldrb	r0, [r0]	@ zero_extendqisi2
	str	r5, [sp]
	ldr	r3, [r3, #4]
	bl	RegionComputeRxWindowParameters
.LVL411:
	.loc 1 2825 0
	bl	OpenContinuousRx2Window
.LVL412:
	b	.L565
.LVL413:
.L500:
	.loc 1 2833 0
	ldrb	r2, [r0, #4]	@ zero_extendqisi2
	ldr	r3, .L573+28
.LVL414:
.L570:
	.loc 1 3043 0
	strb	r2, [r3]
	b	.L568
.LVL415:
.L501:
	.loc 1 2838 0
	ldrb	r2, [r0, #4]	@ zero_extendqisi2
	ldr	r3, .L573+32
	b	.L570
.L502:
	.loc 1 2843 0
	ldr	r2, [r0, #4]
	ldr	r3, .L573+36
.L571:
	.loc 1 3053 0
	str	r2, [r3]
	b	.L568
.L503:
	.loc 1 2848 0
	ldr	r2, [r0, #4]
	ldr	r3, .L573+40
	b	.L571
.L504:
	.loc 1 2853 0
	ldr	r1, [r0, #4]
	cmp	r1, #0
	beq	.L496
	.loc 1 2855 0
	ldr	r0, .L573+44
.LVL416:
	movs	r2, #16
.L572:
	.loc 1 2868 0
	bl	memcpy1
.LVL417:
	b	.L568
.LVL418:
.L505:
	.loc 1 2866 0
	ldr	r1, [r0, #4]
	cmp	r1, #0
	beq	.L496
	.loc 1 2868 0
	movs	r2, #16
	ldr	r0, .L573+48
.LVL419:
	b	.L572
.LVL420:
.L506:
	.loc 1 2879 0
	ldr	r3, .L573+52
	ldrb	r0, [r0, #4]	@ zero_extendqisi2
.LVL421:
	strb	r0, [r3]
	.loc 1 2880 0
	ldr	r3, .L573+8
	ldr	r3, [r3, #88]
	blx	r3
.LVL422:
	b	.L568
.LVL423:
.L507:
	.loc 1 2885 0
	ldrb	r2, [r0, #4]	@ zero_extendqisi2
	ldr	r3, .L573+56
	b	.L570
.L508:
	.loc 1 2891 0
	ldr	r5, .L573+20
	.loc 1 2893 0
	ldr	r6, .L573+24
	.loc 1 2890 0
	ldrb	r3, [r0, #8]	@ zero_extendqisi2
	strb	r3, [sp, #8]
	.loc 1 2893 0
	movs	r2, #6
	.loc 1 2891 0
	ldrb	r3, [r5, #45]	@ zero_extendqisi2
	.loc 1 2893 0
	ldrb	r0, [r6]	@ zero_extendqisi2
.LVL424:
	.loc 1 2891 0
	strb	r3, [sp, #9]
	.loc 1 2893 0
	add	r1, sp, #8
	bl	RegionVerify
.LVL425:
	cmp	r0, #0
	beq	.L496
	.loc 1 2895 0
	adds	r4, r4, #4
.LVL426:
	ldm	r4, {r0, r1}
	add	r3, r5, #36
	stm	r3, {r0, r1}
	.loc 1 2897 0
	ldr	r3, .L573+4
	ldrb	r3, [r3]	@ zero_extendqisi2
	cmp	r3, #2
	bne	.L568
	.loc 1 2897 0 is_stmt 0 discriminator 1
	ldr	r3, .L573+28
	ldrb	r3, [r3]	@ zero_extendqisi2
	cmp	r3, #0
	beq	.L568
	.loc 1 2903 0 is_stmt 1
	ldr	r3, .L573+8
	ldr	r3, [r3, #44]
	blx	r3
.LVL427:
	.loc 1 2905 0
	ldr	r3, .L573+16
	ldrb	r2, [r5, #8]	@ zero_extendqisi2
	ldrsb	r1, [r5, #40]
	str	r3, [sp]
	ldrb	r0, [r6]	@ zero_extendqisi2
	ldr	r3, [r5, #4]
	bl	RegionComputeRxWindowParameters
.LVL428:
	.loc 1 2910 0
	bl	OpenContinuousRx2Window
.LVL429:
	b	.L568
.LVL430:
.L509:
	.loc 1 2921 0
	ldrb	r3, [r0, #8]	@ zero_extendqisi2
	strb	r3, [sp, #8]
	.loc 1 2922 0
	ldr	r3, .L573+20
	ldrb	r3, [r3, #45]	@ zero_extendqisi2
	strb	r3, [sp, #9]
	.loc 1 2924 0
	ldr	r3, .L573+24
	movs	r2, #6
	add	r1, sp, #8
	ldrb	r0, [r3]	@ zero_extendqisi2
.LVL431:
	bl	RegionVerify
.LVL432:
	cbz	r0, .L496
	.loc 1 2926 0
	adds	r4, r4, #4
.LVL433:
	ldm	r4, {r0, r1}
	ldr	r3, .L573+60
	stm	r3, {r0, r1}
	b	.L568
.LVL434:
.L511:
	.loc 1 2936 0
	ldr	r3, [r0, #4]
	str	r3, [sp, #8]
	.loc 1 2937 0
	movs	r3, #1
.L567:
	strb	r3, [sp, #12]
	.loc 1 2939 0
	ldr	r3, .L573+24
	add	r1, sp, #8
	ldrb	r0, [r3]	@ zero_extendqisi2
.LVL435:
	bl	RegionChanMaskSet
.LVL436:
	cmp	r0, #0
	bne	.L568
.LVL437:
.L496:
	.loc 1 2941 0
	movs	r0, #3
.LVL438:
.L497:
	.loc 1 3087 0
	add	sp, sp, #16
.LCFI61:
	@ sp needed
	pop	{r4, r5, r6, pc}
.LVL439:
.L510:
.LCFI62:
	.loc 1 2947 0
	ldr	r3, [r0, #4]
	str	r3, [sp, #8]
	.loc 1 2948 0
	movs	r3, #0
	b	.L567
.L512:
	.loc 1 2958 0
	ldrb	r3, [r0, #4]	@ zero_extendqisi2
	subs	r2, r3, #1
	cmp	r2, #14
	bhi	.L496
	.loc 1 2961 0
	ldr	r2, .L573+20
	strb	r3, [r2, #32]
	b	.L568
.L513:
	.loc 1 2971 0
	ldr	r3, .L573+20
	ldr	r2, [r0, #4]
	str	r2, [r3, #12]
	b	.L568
.L514:
	.loc 1 2976 0
	ldr	r3, .L573+20
	ldr	r2, [r0, #4]
	str	r2, [r3, #16]
	b	.L568
.L515:
	.loc 1 2981 0
	ldr	r3, .L573+20
	ldr	r2, [r0, #4]
	str	r2, [r3, #20]
	b	.L568
.L516:
	.loc 1 2986 0
	ldr	r3, .L573+20
	ldr	r2, [r0, #4]
	str	r2, [r3, #24]
	b	.L568
.L517:
	.loc 1 2991 0
	ldr	r3, .L573+20
	ldr	r2, [r0, #4]
	str	r2, [r3, #28]
	b	.L568
.L518:
	.loc 1 2996 0
	add	r1, sp, #16
	ldrb	r3, [r0, #4]	@ zero_extendqisi2
	strb	r3, [r1, #-8]!
	.loc 1 2998 0
	ldr	r3, .L573+24
	movs	r2, #5
	ldrb	r0, [r3]	@ zero_extendqisi2
.LVL440:
	bl	RegionVerify
.LVL441:
	cmp	r0, #0
	beq	.L496
	.loc 1 3000 0
	ldr	r3, .L573+64
	ldrb	r2, [sp, #8]	@ zero_extendqisi2
	strb	r2, [r3, #1]
	b	.L568
.LVL442:
.L519:
	.loc 1 3011 0
	ldr	r4, .L573+20
	.loc 1 3010 0
	ldrb	r3, [r0, #4]	@ zero_extendqisi2
	strb	r3, [sp, #8]
	.loc 1 3011 0
	ldrb	r3, [r4, #44]	@ zero_extendqisi2
	strb	r3, [sp, #10]
	.loc 1 3013 0
	ldr	r3, .L573+24
	movs	r2, #4
	add	r1, sp, #8
	ldrb	r0, [r3]	@ zero_extendqisi2
.LVL443:
	bl	RegionVerify
.LVL444:
	cmp	r0, #0
	beq	.L496
	.loc 1 3015 0
	ldrb	r3, [sp, #8]	@ zero_extendqisi2
	strb	r3, [r4, #1]
	b	.L568
.LVL445:
.L521:
	.loc 1 3025 0
	add	r1, sp, #16
	ldrb	r3, [r0, #4]	@ zero_extendqisi2
	strb	r3, [r1, #-8]!
	.loc 1 3027 0
	ldr	r3, .L573+24
	movs	r2, #8
	ldrb	r0, [r3]	@ zero_extendqisi2
.LVL446:
	bl	RegionVerify
.LVL447:
	cmp	r0, #0
	beq	.L496
	.loc 1 3029 0
	ldrb	r2, [sp, #8]	@ zero_extendqisi2
	ldr	r3, .L573+64
	b	.L570
.LVL448:
.L520:
	.loc 1 3039 0
	add	r1, sp, #16
	ldrb	r3, [r0, #4]	@ zero_extendqisi2
	strb	r3, [r1, #-8]!
	.loc 1 3041 0
	ldr	r3, .L573+24
	movs	r2, #7
	ldrb	r0, [r3]	@ zero_extendqisi2
.LVL449:
	bl	RegionVerify
.LVL450:
	cmp	r0, #0
	beq	.L496
	.loc 1 3043 0
	ldrb	r2, [sp, #8]	@ zero_extendqisi2
	ldr	r3, .L573+20
	b	.L570
.LVL451:
.L522:
	.loc 1 3053 0
	ldr	r2, [r0, #4]
	ldr	r3, .L573+68
	b	.L571
.L523:
	.loc 1 3058 0
	ldr	r2, [r0, #4]
	ldr	r3, .L573+72
	b	.L571
.L574:
	.align	2
.L573:
	.word	.LANCHOR24
	.word	.LANCHOR25
	.word	Radio
	.word	.LANCHOR17
	.word	.LANCHOR33
	.word	.LANCHOR0
	.word	.LANCHOR2
	.word	.LANCHOR3
	.word	.LANCHOR40
	.word	.LANCHOR50
	.word	.LANCHOR51
	.word	.LANCHOR46
	.word	.LANCHOR45
	.word	.LANCHOR66
	.word	.LANCHOR1
	.word	.LANCHOR16+36
	.word	.LANCHOR16
	.word	.LANCHOR4
	.word	.LANCHOR5
.L524:
	.loc 1 3063 0
	ldr	r2, .L575
	ldr	r3, [r0, #4]
	str	r3, [r2, #4]
	ldr	r2, .L575+4
	str	r3, [r2, #4]
	b	.L568
.L525:
	.loc 1 3068 0
	ldr	r2, .L575
	ldrb	r3, [r0, #4]	@ zero_extendqisi2
	strb	r3, [r2, #8]
	ldr	r2, .L575+4
	strb	r3, [r2, #8]
	b	.L568
.L526:
	.loc 1 3073 0
	ldr	r2, [r0, #4]	@ float
	ldr	r3, .L575+4
.L569:
	str	r2, [r3, #52]	@ float
	b	.L568
.L527:
	.loc 1 3078 0
	ldr	r2, [r0, #4]	@ float
	ldr	r3, .L575
	b	.L569
.L532:
	.loc 1 2793 0
	movs	r0, #1
.LVL452:
	b	.L497
.LVL453:
.L533:
	.loc 1 3082 0
	movs	r0, #2
.LVL454:
	b	.L497
.L576:
	.align	2
.L575:
	.word	.LANCHOR16
	.word	.LANCHOR0
.LFE32:
	.size	LoRaMacMibSetRequestConfirm, .-LoRaMacMibSetRequestConfirm
	.section	.text.LoRaMacChannelAdd,"ax",%progbits
	.align	1
	.global	LoRaMacChannelAdd
	.syntax unified
	.thumb
	.thumb_func
	.fpu fpv4-sp-d16
	.type	LoRaMacChannelAdd, %function
LoRaMacChannelAdd:
.LFB33:
	.loc 1 3090 0
	@ args = 0, pretend = 0, frame = 24
	@ frame_needed = 0, uses_anonymous_args = 0
.LVL455:
	push	{r4, lr}
.LCFI63:
	sub	sp, sp, #24
.LCFI64:
	.loc 1 3090 0
	add	r4, sp, #4
	stm	r4, {r1, r2, r3}
	.loc 1 3094 0
	ldr	r3, .L584
	ldr	r3, [r3]
	lsls	r2, r3, #31
	bpl	.L578
	.loc 1 3096 0
	lsls	r3, r3, #26
	bpl	.L580
.L578:
	.loc 1 3105 0
	ldr	r3, .L584+4
	.loc 1 3103 0
	strb	r0, [sp, #20]
	.loc 1 3105 0
	add	r1, sp, #16
	ldrb	r0, [r3]	@ zero_extendqisi2
.LVL456:
	.loc 1 3102 0
	str	r4, [sp, #16]
	.loc 1 3105 0
	bl	RegionChannelAdd
.LVL457:
.L579:
	.loc 1 3106 0
	add	sp, sp, #24
.LCFI65:
	@ sp needed
	pop	{r4, pc}
.LVL458:
.L580:
.LCFI66:
	.loc 1 3098 0
	movs	r0, #1
.LVL459:
	b	.L579
.L585:
	.align	2
.L584:
	.word	.LANCHOR24
	.word	.LANCHOR2
.LFE33:
	.size	LoRaMacChannelAdd, .-LoRaMacChannelAdd
	.section	.text.LoRaMacChannelRemove,"ax",%progbits
	.align	1
	.global	LoRaMacChannelRemove
	.syntax unified
	.thumb
	.thumb_func
	.fpu fpv4-sp-d16
	.type	LoRaMacChannelRemove, %function
LoRaMacChannelRemove:
.LFB34:
	.loc 1 3109 0
	@ args = 0, pretend = 0, frame = 8
	@ frame_needed = 0, uses_anonymous_args = 0
.LVL460:
	.loc 1 3112 0
	ldr	r3, .L594
	ldr	r3, [r3]
	.loc 1 3109 0
	push	{r0, r1, r2, lr}
.LCFI67:
	.loc 1 3112 0
	lsls	r2, r3, #31
	bpl	.L587
	.loc 1 3114 0
	lsls	r3, r3, #26
	bpl	.L589
.L587:
	.loc 1 3120 0
	add	r1, sp, #8
	.loc 1 3122 0
	ldr	r3, .L594+4
	.loc 1 3120 0
	strb	r0, [r1, #-4]!
	.loc 1 3122 0
	ldrb	r0, [r3]	@ zero_extendqisi2
.LVL461:
	bl	RegionChannelsRemove
.LVL462:
	.loc 1 3126 0
	cmp	r0, #0
	ite	eq
	moveq	r0, #3
	movne	r0, #0
.L588:
	.loc 1 3127 0
	add	sp, sp, #12
.LCFI68:
	@ sp needed
	ldr	pc, [sp], #4
.LVL463:
.L589:
.LCFI69:
	.loc 1 3116 0
	movs	r0, #1
.LVL464:
	b	.L588
.L595:
	.align	2
.L594:
	.word	.LANCHOR24
	.word	.LANCHOR2
.LFE34:
	.size	LoRaMacChannelRemove, .-LoRaMacChannelRemove
	.section	.text.LoRaMacMulticastChannelLink,"ax",%progbits
	.align	1
	.global	LoRaMacMulticastChannelLink
	.syntax unified
	.thumb
	.thumb_func
	.fpu fpv4-sp-d16
	.type	LoRaMacMulticastChannelLink, %function
LoRaMacMulticastChannelLink:
.LFB35:
	.loc 1 3130 0
	@ args = 0, pretend = 0, frame = 0
	@ frame_needed = 0, uses_anonymous_args = 0
	@ link register save eliminated.
.LVL465:
	.loc 1 3131 0
	cbz	r0, .L599
	.loc 1 3135 0
	ldr	r3, .L603
	ldr	r3, [r3]
	ands	r3, r3, #1
	bne	.L600
	.loc 1 3141 0
	str	r3, [r0, #36]
	.loc 1 3143 0
	ldr	r3, .L603+4
	ldr	r2, [r3]
	cbnz	r2, .L598
	.loc 1 3146 0
	str	r0, [r3]
	.loc 1 3161 0
	mov	r0, r2
.LVL466:
	bx	lr
.LVL467:
.L601:
.LBB169:
	mov	r2, r3
.LVL468:
.L598:
	.loc 1 3153 0
	ldr	r3, [r2, #40]
	cmp	r3, #0
	bne	.L601
	.loc 1 3158 0
	str	r0, [r2, #40]
.LBE169:
	.loc 1 3161 0
	mov	r0, r3
.LVL469:
	bx	lr
.LVL470:
.L599:
	.loc 1 3133 0
	movs	r0, #3
.LVL471:
	bx	lr
.LVL472:
.L600:
	.loc 1 3137 0
	movs	r0, #1
.LVL473:
	.loc 1 3162 0
	bx	lr
.L604:
	.align	2
.L603:
	.word	.LANCHOR24
	.word	.LANCHOR20
.LFE35:
	.size	LoRaMacMulticastChannelLink, .-LoRaMacMulticastChannelLink
	.section	.text.LoRaMacMulticastChannelUnlink,"ax",%progbits
	.align	1
	.global	LoRaMacMulticastChannelUnlink
	.syntax unified
	.thumb
	.thumb_func
	.fpu fpv4-sp-d16
	.type	LoRaMacMulticastChannelUnlink, %function
LoRaMacMulticastChannelUnlink:
.LFB36:
	.loc 1 3165 0
	@ args = 0, pretend = 0, frame = 0
	@ frame_needed = 0, uses_anonymous_args = 0
	@ link register save eliminated.
.LVL474:
	.loc 1 3166 0
	cbz	r0, .L610
	.loc 1 3170 0
	ldr	r3, .L620
	ldr	r3, [r3]
	lsls	r3, r3, #31
	bmi	.L611
	.loc 1 3175 0
	ldr	r2, .L620+4
	ldr	r3, [r2]
	cbz	r3, .L612
	.loc 1 3177 0
	cmp	r3, r0
	bne	.L607
	.loc 1 3180 0
	ldr	r3, [r0, #40]
	str	r3, [r2]
.L608:
	.loc 1 3197 0
	movs	r3, #0
	str	r3, [r0, #40]
.L612:
	.loc 1 3200 0
	mov	r0, r3
.LVL475:
	.loc 1 3201 0
	bx	lr
.LVL476:
.L613:
.LBB170:
	mov	r3, r2
.LVL477:
.L607:
	.loc 1 3187 0
	ldr	r2, [r3, #40]
	cmp	r2, #0
	beq	.L608
	.loc 1 3187 0 is_stmt 0 discriminator 1
	cmp	r2, r0
	bne	.L613
	.loc 1 3194 0 is_stmt 1
	ldr	r2, [r0, #40]
	str	r2, [r3, #40]
	b	.L608
.LVL478:
.L610:
.LBE170:
	.loc 1 3168 0
	movs	r0, #3
.LVL479:
	bx	lr
.LVL480:
.L611:
	.loc 1 3172 0
	movs	r0, #1
.LVL481:
	bx	lr
.L621:
	.align	2
.L620:
	.word	.LANCHOR24
	.word	.LANCHOR20
.LFE36:
	.size	LoRaMacMulticastChannelUnlink, .-LoRaMacMulticastChannelUnlink
	.section	.text.LoRaMacMlmeRequest,"ax",%progbits
	.align	1
	.global	LoRaMacMlmeRequest
	.syntax unified
	.thumb
	.thumb_func
	.fpu fpv4-sp-d16
	.type	LoRaMacMlmeRequest, %function
LoRaMacMlmeRequest:
.LFB37:
	.loc 1 3204 0
	@ args = 0, pretend = 0, frame = 8
	@ frame_needed = 0, uses_anonymous_args = 0
.LVL482:
	push	{r0, r1, r4, r5, r6, lr}
.LCFI70:
	.loc 1 3208 0
	mov	r4, r0
	cbnz	r0, .L623
.LVL483:
.L633:
	.loc 1 3210 0
	movs	r0, #3
.LVL484:
.L624:
	.loc 1 3288 0
	add	sp, sp, #8
.LCFI71:
	@ sp needed
	pop	{r4, r5, r6, pc}
.LVL485:
.L623:
.LCFI72:
	.loc 1 3212 0
	ldr	r6, .L649
	ldr	r1, [r6]
	cbz	r1, .L625
.LVL486:
.L632:
	.loc 1 3214 0
	movs	r0, #1
	b	.L624
.LVL487:
.L625:
	.loc 1 3217 0
	ldr	r5, .L649+4
	movs	r2, #12
	mov	r0, r5
.LVL488:
	bl	memset1
.LVL489:
	.loc 1 3219 0
	movs	r3, #1
	strb	r3, [r5, #1]
	.loc 1 3221 0
	ldrb	r3, [r4]	@ zero_extendqisi2
	cmp	r3, #3
	bhi	.L635
	tbb	[pc, r3]
.L628:
	.byte	(.L627-.L628)/2
	.byte	(.L629-.L628)/2
	.byte	(.L630-.L628)/2
	.byte	(.L631-.L628)/2
	.p2align 1
.L627:
	.loc 1 3225 0
	ldr	r6, [r6]
	ands	r6, r6, #16
	bne	.L632
	.loc 1 3230 0
	ldr	r3, [r4, #4]
	cmp	r3, #0
	beq	.L633
	.loc 1 3230 0 is_stmt 0 discriminator 1
	ldr	r3, [r4, #8]
	cmp	r3, #0
	beq	.L633
	.loc 1 3231 0 is_stmt 1
	ldr	r3, [r4, #12]
	cmp	r3, #0
	beq	.L633
	.loc 1 3237 0
	bl	ResetMacParameters
.LVL490:
	.loc 1 3239 0
	ldr	r2, .L649+8
	.loc 1 3245 0
	ldrsb	r1, [r4, #16]
	.loc 1 3239 0
	ldrb	r3, [r2]	@ zero_extendqisi2
	orr	r3, r3, #8
	strb	r3, [r2]
	.loc 1 3240 0
	ldrb	r3, [r4]	@ zero_extendqisi2
	strb	r3, [r5]
	.loc 1 3242 0
	ldr	r3, .L649+12
	ldr	r2, [r4, #4]
	str	r2, [r3]
	.loc 1 3243 0
	ldr	r3, .L649+16
	ldr	r2, [r4, #8]
	str	r2, [r3]
	.loc 1 3244 0
	ldr	r3, .L649+20
	ldr	r2, [r4, #12]
	str	r2, [r3]
	.loc 1 3245 0
	ldr	r3, .L649+24
	ldrb	r0, [r3]	@ zero_extendqisi2
	bl	RegionAlternateDr
.LVL491:
	ldr	r3, .L649+28
	strb	r0, [r3, #1]
	.loc 1 3248 0
	add	r0, sp, #8
	.loc 1 3251 0
	mov	r3, r6
	.loc 1 3248 0
	strb	r6, [r0, #-4]!
	.loc 1 3251 0
	mov	r2, r6
	mov	r1, r6
	bl	Send
.LVL492:
.L634:
	.loc 1 3281 0
	cmp	r0, #0
	beq	.L624
.LVL493:
.L626:
	.loc 1 3283 0
	ldr	r3, .L649+32
	movs	r1, #0
	strb	r1, [r3]
	.loc 1 3284 0
	ldr	r3, .L649+8
	ldrb	r2, [r3]	@ zero_extendqisi2
	bfi	r2, r1, #3, #1
	strb	r2, [r3]
	b	.L624
.LVL494:
.L629:
	.loc 1 3256 0
	ldr	r2, .L649+8
.LBB173:
.LBB174:
	.loc 1 1623 0
	ldr	r1, .L649+36
.LBE174:
.LBE173:
	.loc 1 3256 0
	ldrb	r3, [r2]	@ zero_extendqisi2
	orr	r3, r3, #8
	strb	r3, [r2]
.LBB178:
.LBB175:
	.loc 1 1618 0
	ldr	r3, .L649+40
	.loc 1 1623 0
	ldrb	r2, [r1]	@ zero_extendqisi2
	.loc 1 1618 0
	ldrb	r3, [r3]	@ zero_extendqisi2
	rsb	r3, r3, #128
	.loc 1 1623 0
	uxtb	r3, r3
.LBE175:
.LBE178:
	.loc 1 3258 0
	movs	r0, #1
.LBB179:
.LBB176:
	.loc 1 1623 0
	cmp	r3, r2
.LBE176:
.LBE179:
	.loc 1 3258 0
	strb	r0, [r5]
.LVL495:
.LBB180:
.LBB177:
	.loc 1 1623 0
	bls	.L626
	.loc 1 1625 0
	adds	r3, r2, r0
	strb	r3, [r1]
	ldr	r3, .L649+44
	movs	r1, #2
	strb	r1, [r3, r2]
.LVL496:
	.loc 1 1714 0
	ldr	r3, .L649+48
	strb	r0, [r3]
.LVL497:
	movs	r0, #0
	b	.L624
.LVL498:
.L630:
.LBE177:
.LBE180:
	.loc 1 3266 0
	ldr	r2, .L649+8
	.loc 1 3267 0
	ldrh	r0, [r4, #4]
	.loc 1 3265 0
	movs	r3, #2
	strb	r3, [r5]
	.loc 1 3266 0
	ldrb	r3, [r2]	@ zero_extendqisi2
	orr	r3, r3, #8
	strb	r3, [r2]
	.loc 1 3267 0
	bl	SetTxContinuousWave
.LVL499:
	.loc 1 3268 0
	b	.L634
.LVL500:
.L631:
	.loc 1 3273 0
	ldr	r2, .L649+8
	.loc 1 3274 0
	ldr	r1, [r4, #8]
	ldrh	r0, [r4, #4]
	.loc 1 3272 0
	movs	r3, #3
	strb	r3, [r5]
	.loc 1 3273 0
	ldrb	r3, [r2]	@ zero_extendqisi2
	orr	r3, r3, #8
	strb	r3, [r2]
	.loc 1 3274 0
	ldrb	r2, [r4, #12]	@ zero_extendqisi2
	bl	SetTxContinuousWave1
.LVL501:
	.loc 1 3275 0
	b	.L634
.LVL502:
.L635:
	.loc 1 3205 0
	movs	r0, #2
	b	.L626
.L650:
	.align	2
.L649:
	.word	.LANCHOR24
	.word	.LANCHOR35
	.word	.LANCHOR26
	.word	.LANCHOR56
	.word	.LANCHOR55
	.word	.LANCHOR48
	.word	.LANCHOR2
	.word	.LANCHOR0
	.word	.LANCHOR17
	.word	.LANCHOR13
	.word	.LANCHOR14
	.word	.LANCHOR41
	.word	.LANCHOR19
.LFE37:
	.size	LoRaMacMlmeRequest, .-LoRaMacMlmeRequest
	.section	.text.LoRaMacMcpsRequest,"ax",%progbits
	.align	1
	.global	LoRaMacMcpsRequest
	.syntax unified
	.thumb
	.thumb_func
	.fpu fpv4-sp-d16
	.type	LoRaMacMcpsRequest, %function
LoRaMacMcpsRequest:
.LFB38:
	.loc 1 3291 0
	@ args = 0, pretend = 0, frame = 24
	@ frame_needed = 0, uses_anonymous_args = 0
.LVL503:
	push	{r4, r5, r6, r7, r8, r9, r10, fp, lr}
.LCFI73:
	.loc 1 3303 0
	mov	r4, r0
	.loc 1 3291 0
	sub	sp, sp, #28
.LCFI74:
	.loc 1 3303 0
	cbnz	r0, .L652
.LVL504:
.L659:
	.loc 1 3305 0
	movs	r0, #3
.LVL505:
.L653:
	.loc 1 3404 0
	add	sp, sp, #28
.LCFI75:
	@ sp needed
	pop	{r4, r5, r6, r7, r8, r9, r10, fp, pc}
.LVL506:
.L652:
.LCFI76:
	.loc 1 3307 0
	ldr	r3, .L669
	ldr	r6, [r3]
	cmp	r6, #0
	bne	.L662
	.loc 1 3313 0
	ldr	r7, .L669+4
	.loc 1 3312 0
	strb	r6, [sp, #12]
	.loc 1 3313 0
	movs	r2, #20
	mov	r1, r6
	mov	r0, r7
.LVL507:
	bl	memset1
.LVL508:
	.loc 1 3317 0
	ldr	r3, .L669+8
	.loc 1 3314 0
	movs	r5, #1
	.loc 1 3317 0
	strb	r5, [r3]
	.loc 1 3319 0
	ldrb	r3, [r4]	@ zero_extendqisi2
	.loc 1 3314 0
	strb	r5, [r7, #1]
	.loc 1 3319 0
	cmp	r3, r5
	beq	.L655
	bcc	.L656
	cmp	r3, #3
	beq	.L657
	.loc 1 3301 0
	mov	r5, r6
	.loc 1 3300 0
	mov	r10, r6
	b	.L658
.L656:
.LVL509:
	.loc 1 3324 0
	ldr	r3, .L669+12
	.loc 1 3327 0
	ldrb	r6, [r4, #4]	@ zero_extendqisi2
.LVL510:
	.loc 1 3324 0
	strb	r5, [r3]
	.loc 1 3326 0
	ldrb	r3, [sp, #12]	@ zero_extendqisi2
	.loc 1 3328 0
	ldr	r8, [r4, #8]
.LVL511:
	.loc 1 3329 0
	ldrh	r9, [r4, #12]
.LVL512:
	.loc 1 3330 0
	ldrsb	r10, [r4, #14]
.LVL513:
	.loc 1 3326 0
	movs	r2, #2
	bfi	r3, r2, #5, #3
	strb	r3, [sp, #12]
.L654:
.LVL514:
.LBB181:
.LBB182:
	.loc 1 2137 0
	cmp	r6, #224
	bhi	.L659
	b	.L658
.LVL515:
.L655:
.LBE182:
.LBE181:
	.loc 1 3336 0
	ldr	r2, .L669+12
	ldrb	r1, [r4, #15]	@ zero_extendqisi2
	strb	r1, [r2]
	.loc 1 3338 0
	ldrb	r2, [sp, #12]	@ zero_extendqisi2
	.loc 1 3339 0
	ldrb	r6, [r4, #4]	@ zero_extendqisi2
.LVL516:
	.loc 1 3340 0
	ldr	r8, [r4, #8]
.LVL517:
	.loc 1 3341 0
	ldrh	r9, [r4, #12]
.LVL518:
	.loc 1 3342 0
	ldrsb	r10, [r4, #14]
.LVL519:
	.loc 1 3338 0
	movs	r1, #4
	bfi	r2, r1, #5, #3
	strb	r2, [sp, #12]
	.loc 1 3335 0
	mov	r5, r3
	.loc 1 3343 0
	b	.L654
.LVL520:
.L657:
	.loc 1 3348 0
	ldr	r3, .L669+12
	.loc 1 3351 0
	ldr	r8, [r4, #4]
.LVL521:
	.loc 1 3348 0
	strb	r5, [r3]
	.loc 1 3350 0
	ldrb	r3, [sp, #12]	@ zero_extendqisi2
	.loc 1 3352 0
	ldrh	r9, [r4, #8]
.LVL522:
	.loc 1 3353 0
	ldrsb	r10, [r4, #10]
.LVL523:
	.loc 1 3350 0
	orr	r3, r3, #224
	strb	r3, [sp, #12]
.LVL524:
.L658:
	.loc 1 3368 0
	ldr	fp, .L669+32
	.loc 1 3367 0
	movs	r3, #1
	strb	r3, [sp, #20]
	.loc 1 3368 0
	ldrb	r3, [fp, #44]	@ zero_extendqisi2
	strb	r3, [sp, #22]
	.loc 1 3369 0
	ldr	r3, .L669+16
	str	r3, [sp, #4]
	add	r1, sp, #20
	ldrb	r0, [r3]	@ zero_extendqisi2
	bl	RegionGetPhyParam
.LVL525:
	.loc 1 3374 0
	cbz	r5, .L664
.LVL526:
	.loc 1 3376 0
	ldr	r2, .L669+20
	ldrb	r2, [r2]	@ zero_extendqisi2
	cbnz	r2, .L660
	.loc 1 3381 0
	ldr	r3, [sp, #4]
	.loc 1 3379 0
	ldrb	r2, [fp, #44]	@ zero_extendqisi2
	strb	r2, [sp, #18]
	.loc 1 3372 0
	cmp	r10, r0
	it	cc
	movcc	r10, r0
.LVL527:
	.loc 1 3381 0
	movs	r2, #4
	add	r1, sp, #16
	ldrb	r0, [r3]	@ zero_extendqisi2
.LVL528:
	.loc 1 3372 0
	strb	r10, [sp, #16]
	.loc 1 3381 0
	bl	RegionVerify
.LVL529:
	cmp	r0, #0
	beq	.L659
	.loc 1 3383 0
	ldrb	r3, [sp, #16]	@ zero_extendqisi2
	strb	r3, [fp, #1]
.LVL530:
.L660:
	.loc 1 3391 0
	mov	r3, r9
	mov	r2, r8
	mov	r1, r6
	add	r0, sp, #12
.LVL531:
	bl	Send
.LVL532:
	.loc 1 3392 0
	cbnz	r0, .L661
	.loc 1 3395 0
	ldr	r2, .L669+24
	.loc 1 3394 0
	ldrb	r3, [r4]	@ zero_extendqisi2
	strb	r3, [r7]
	.loc 1 3395 0
	ldrb	r3, [r2]	@ zero_extendqisi2
	orr	r3, r3, #1
	strb	r3, [r2]
	b	.L653
.L661:
	.loc 1 3399 0
	ldr	r3, .L669+28
	movs	r2, #0
	strb	r2, [r3]
	b	.L653
.LVL533:
.L662:
	.loc 1 3309 0
	movs	r0, #1
.LVL534:
	b	.L653
.LVL535:
.L664:
	.loc 1 3294 0
	movs	r0, #2
.LVL536:
	b	.L653
.L670:
	.align	2
.L669:
	.word	.LANCHOR24
	.word	.LANCHOR34
	.word	.LANCHOR9
	.word	.LANCHOR8
	.word	.LANCHOR2
	.word	.LANCHOR40
	.word	.LANCHOR26
	.word	.LANCHOR17
	.word	.LANCHOR0
.LFE38:
	.size	LoRaMacMcpsRequest, .-LoRaMacMcpsRequest
	.section	.text.LoRaMacTestRxWindowsOn,"ax",%progbits
	.align	1
	.global	LoRaMacTestRxWindowsOn
	.syntax unified
	.thumb
	.thumb_func
	.fpu fpv4-sp-d16
	.type	LoRaMacTestRxWindowsOn, %function
LoRaMacTestRxWindowsOn:
.LFB39:
	.loc 1 3407 0
	@ args = 0, pretend = 0, frame = 0
	@ frame_needed = 0, uses_anonymous_args = 0
	@ link register save eliminated.
.LVL537:
	.loc 1 3408 0
	ldr	r3, .L672
	strb	r0, [r3]
	.loc 1 3409 0
	bx	lr
.L673:
	.align	2
.L672:
	.word	.LANCHOR15
.LFE39:
	.size	LoRaMacTestRxWindowsOn, .-LoRaMacTestRxWindowsOn
	.section	.text.LoRaMacTestSetMic,"ax",%progbits
	.align	1
	.global	LoRaMacTestSetMic
	.syntax unified
	.thumb
	.thumb_func
	.fpu fpv4-sp-d16
	.type	LoRaMacTestSetMic, %function
LoRaMacTestSetMic:
.LFB40:
	.loc 1 3412 0
	@ args = 0, pretend = 0, frame = 0
	@ frame_needed = 0, uses_anonymous_args = 0
	@ link register save eliminated.
.LVL538:
	.loc 1 3413 0
	ldr	r3, .L675
	str	r0, [r3]
	.loc 1 3414 0
	ldr	r3, .L675+4
	movs	r2, #1
	strb	r2, [r3]
	.loc 1 3415 0
	bx	lr
.L676:
	.align	2
.L675:
	.word	.LANCHOR4
	.word	.LANCHOR63
.LFE40:
	.size	LoRaMacTestSetMic, .-LoRaMacTestSetMic
	.section	.text.LoRaMacTestSetDutyCycleOn,"ax",%progbits
	.align	1
	.global	LoRaMacTestSetDutyCycleOn
	.syntax unified
	.thumb
	.thumb_func
	.fpu fpv4-sp-d16
	.type	LoRaMacTestSetDutyCycleOn, %function
LoRaMacTestSetDutyCycleOn:
.LFB41:
	.loc 1 3418 0
	@ args = 0, pretend = 0, frame = 8
	@ frame_needed = 0, uses_anonymous_args = 0
.LVL539:
	push	{r0, r1, r4, lr}
.LCFI77:
	.loc 1 3423 0
	ldr	r3, .L682
	.loc 1 3421 0
	add	r1, sp, #8
	.loc 1 3418 0
	mov	r4, r0
	.loc 1 3421 0
	strb	r0, [r1, #-4]!
	.loc 1 3423 0
	movs	r2, #11
	ldrb	r0, [r3]	@ zero_extendqisi2
.LVL540:
	bl	RegionVerify
.LVL541:
	cbz	r0, .L677
	.loc 1 3425 0
	ldr	r3, .L682+4
	strb	r4, [r3]
.L677:
	.loc 1 3427 0
	add	sp, sp, #8
.LCFI78:
	@ sp needed
	pop	{r4, pc}
.L683:
	.align	2
.L682:
	.word	.LANCHOR2
	.word	.LANCHOR60
.LFE41:
	.size	LoRaMacTestSetDutyCycleOn, .-LoRaMacTestSetDutyCycleOn
	.section	.text.LoRaMacTestSetChannel,"ax",%progbits
	.align	1
	.global	LoRaMacTestSetChannel
	.syntax unified
	.thumb
	.thumb_func
	.fpu fpv4-sp-d16
	.type	LoRaMacTestSetChannel, %function
LoRaMacTestSetChannel:
.LFB42:
	.loc 1 3430 0
	@ args = 0, pretend = 0, frame = 0
	@ frame_needed = 0, uses_anonymous_args = 0
	@ link register save eliminated.
.LVL542:
	.loc 1 3431 0
	ldr	r3, .L685
	strb	r0, [r3]
	.loc 1 3432 0
	bx	lr
.L686:
	.align	2
.L685:
	.word	.LANCHOR21
.LFE42:
	.size	LoRaMacTestSetChannel, .-LoRaMacTestSetChannel
	.global	LoRaMacFlags
	.global	TxTimeOnAir
	.global	LoRaMacState
	.global	LoRaMacParamsDefaults
	.global	LoRaMacParams
	.section	.bss.AckTimeoutRetry,"aw",%nobits
	.set	.LANCHOR10,. + 0
	.type	AckTimeoutRetry, %object
	.size	AckTimeoutRetry, 1
AckTimeoutRetry:
	.space	1
	.section	.bss.AckTimeoutTimer,"aw",%nobits
	.align	2
	.set	.LANCHOR23,. + 0
	.type	AckTimeoutTimer, %object
	.size	AckTimeoutTimer, 20
AckTimeoutTimer:
	.space	20
	.section	.bss.AdrAckCounter,"aw",%nobits
	.align	2
	.set	.LANCHOR6,. + 0
	.type	AdrAckCounter, %object
	.size	AdrAckCounter, 4
AdrAckCounter:
	.space	4
	.section	.bss.AdrCtrlOn,"aw",%nobits
	.set	.LANCHOR40,. + 0
	.type	AdrCtrlOn, %object
	.size	AdrCtrlOn, 1
AdrCtrlOn:
	.space	1
	.section	.bss.AggregatedDCycle,"aw",%nobits
	.align	1
	.set	.LANCHOR12,. + 0
	.type	AggregatedDCycle, %object
	.size	AggregatedDCycle, 2
AggregatedDCycle:
	.space	2
	.section	.bss.AggregatedLastTxDoneTime,"aw",%nobits
	.align	2
	.set	.LANCHOR36,. + 0
	.type	AggregatedLastTxDoneTime, %object
	.size	AggregatedLastTxDoneTime, 4
AggregatedLastTxDoneTime:
	.space	4
	.section	.bss.AggregatedTimeOff,"aw",%nobits
	.align	2
	.set	.LANCHOR59,. + 0
	.type	AggregatedTimeOff, %object
	.size	AggregatedTimeOff, 4
AggregatedTimeOff:
	.space	4
	.section	.bss.Channel,"aw",%nobits
	.set	.LANCHOR21,. + 0
	.type	Channel, %object
	.size	Channel, 1
Channel:
	.space	1
	.section	.bss.ChannelsNbRepCounter,"aw",%nobits
	.set	.LANCHOR7,. + 0
	.type	ChannelsNbRepCounter, %object
	.size	ChannelsNbRepCounter, 1
ChannelsNbRepCounter:
	.space	1
	.section	.bss.DownLinkCounter,"aw",%nobits
	.align	2
	.set	.LANCHOR5,. + 0
	.type	DownLinkCounter, %object
	.size	DownLinkCounter, 4
DownLinkCounter:
	.space	4
	.section	.bss.DutyCycleOn,"aw",%nobits
	.set	.LANCHOR60,. + 0
	.type	DutyCycleOn, %object
	.size	DutyCycleOn, 1
DutyCycleOn:
	.space	1
	.section	.bss.IsLoRaMacNetworkJoined,"aw",%nobits
	.set	.LANCHOR3,. + 0
	.type	IsLoRaMacNetworkJoined, %object
	.size	IsLoRaMacNetworkJoined, 1
IsLoRaMacNetworkJoined:
	.space	1
	.section	.bss.IsUpLinkCounterFixed,"aw",%nobits
	.set	.LANCHOR63,. + 0
	.type	IsUpLinkCounterFixed, %object
	.size	IsUpLinkCounterFixed, 1
IsUpLinkCounterFixed:
	.space	1
	.section	.bss.LastTxChannel,"aw",%nobits
	.set	.LANCHOR22,. + 0
	.type	LastTxChannel, %object
	.size	LastTxChannel, 1
LastTxChannel:
	.space	1
	.section	.bss.LastTxIsJoinRequest,"aw",%nobits
	.set	.LANCHOR39,. + 0
	.type	LastTxIsJoinRequest, %object
	.size	LastTxIsJoinRequest, 1
LastTxIsJoinRequest:
	.space	1
	.section	.bss.LoRaMacAppEui,"aw",%nobits
	.align	2
	.set	.LANCHOR55,. + 0
	.type	LoRaMacAppEui, %object
	.size	LoRaMacAppEui, 4
LoRaMacAppEui:
	.space	4
	.section	.bss.LoRaMacAppKey,"aw",%nobits
	.align	2
	.set	.LANCHOR48,. + 0
	.type	LoRaMacAppKey, %object
	.size	LoRaMacAppKey, 4
LoRaMacAppKey:
	.space	4
	.section	.bss.LoRaMacAppSKey,"aw",%nobits
	.set	.LANCHOR45,. + 0
	.type	LoRaMacAppSKey, %object
	.size	LoRaMacAppSKey, 16
LoRaMacAppSKey:
	.space	16
	.section	.bss.LoRaMacBuffer,"aw",%nobits
	.set	.LANCHOR54,. + 0
	.type	LoRaMacBuffer, %object
	.size	LoRaMacBuffer, 255
LoRaMacBuffer:
	.space	255
	.section	.bss.LoRaMacBufferPktLen,"aw",%nobits
	.align	1
	.set	.LANCHOR52,. + 0
	.type	LoRaMacBufferPktLen, %object
	.size	LoRaMacBufferPktLen, 2
LoRaMacBufferPktLen:
	.space	2
	.section	.bss.LoRaMacCallbacks,"aw",%nobits
	.align	2
	.set	.LANCHOR43,. + 0
	.type	LoRaMacCallbacks, %object
	.size	LoRaMacCallbacks, 4
LoRaMacCallbacks:
	.space	4
	.section	.bss.LoRaMacDevAddr,"aw",%nobits
	.align	2
	.set	.LANCHOR51,. + 0
	.type	LoRaMacDevAddr, %object
	.size	LoRaMacDevAddr, 4
LoRaMacDevAddr:
	.space	4
	.section	.bss.LoRaMacDevEui,"aw",%nobits
	.align	2
	.set	.LANCHOR56,. + 0
	.type	LoRaMacDevEui, %object
	.size	LoRaMacDevEui, 4
LoRaMacDevEui:
	.space	4
	.section	.bss.LoRaMacDevNonce,"aw",%nobits
	.align	1
	.set	.LANCHOR49,. + 0
	.type	LoRaMacDevNonce, %object
	.size	LoRaMacDevNonce, 2
LoRaMacDevNonce:
	.space	2
	.section	.bss.LoRaMacDeviceClass,"aw",%nobits
	.set	.LANCHOR25,. + 0
	.type	LoRaMacDeviceClass, %object
	.size	LoRaMacDeviceClass, 1
LoRaMacDeviceClass:
	.space	1
	.section	.bss.LoRaMacFlags,"aw",%nobits
	.set	.LANCHOR26,. + 0
	.type	LoRaMacFlags, %object
	.size	LoRaMacFlags, 1
LoRaMacFlags:
	.space	1
	.section	.bss.LoRaMacInitializationTime,"aw",%nobits
	.align	2
	.set	.LANCHOR61,. + 0
	.type	LoRaMacInitializationTime, %object
	.size	LoRaMacInitializationTime, 4
LoRaMacInitializationTime:
	.space	4
	.section	.bss.LoRaMacNetID,"aw",%nobits
	.align	2
	.set	.LANCHOR50,. + 0
	.type	LoRaMacNetID, %object
	.size	LoRaMacNetID, 4
LoRaMacNetID:
	.space	4
	.section	.bss.LoRaMacNwkSKey,"aw",%nobits
	.set	.LANCHOR46,. + 0
	.type	LoRaMacNwkSKey, %object
	.size	LoRaMacNwkSKey, 16
LoRaMacNwkSKey:
	.space	16
	.section	.bss.LoRaMacParams,"aw",%nobits
	.align	2
	.set	.LANCHOR0,. + 0
	.type	LoRaMacParams, %object
	.size	LoRaMacParams, 56
LoRaMacParams:
	.space	56
	.section	.bss.LoRaMacParamsDefaults,"aw",%nobits
	.align	2
	.set	.LANCHOR16,. + 0
	.type	LoRaMacParamsDefaults, %object
	.size	LoRaMacParamsDefaults, 56
LoRaMacParamsDefaults:
	.space	56
	.section	.bss.LoRaMacPrimitives,"aw",%nobits
	.align	2
	.set	.LANCHOR64,. + 0
	.type	LoRaMacPrimitives, %object
	.size	LoRaMacPrimitives, 4
LoRaMacPrimitives:
	.space	4
	.section	.bss.LoRaMacRegion,"aw",%nobits
	.set	.LANCHOR2,. + 0
	.type	LoRaMacRegion, %object
	.size	LoRaMacRegion, 1
LoRaMacRegion:
	.space	1
	.section	.bss.LoRaMacRxPayload,"aw",%nobits
	.set	.LANCHOR47,. + 0
	.type	LoRaMacRxPayload, %object
	.size	LoRaMacRxPayload, 255
LoRaMacRxPayload:
	.space	255
	.section	.bss.LoRaMacState,"aw",%nobits
	.align	2
	.set	.LANCHOR24,. + 0
	.type	LoRaMacState, %object
	.size	LoRaMacState, 4
LoRaMacState:
	.space	4
	.section	.bss.LoRaMacTxPayloadLen,"aw",%nobits
	.set	.LANCHOR53,. + 0
	.type	LoRaMacTxPayloadLen, %object
	.size	LoRaMacTxPayloadLen, 1
LoRaMacTxPayloadLen:
	.space	1
	.section	.bss.MacCommandsBuffer,"aw",%nobits
	.set	.LANCHOR41,. + 0
	.type	MacCommandsBuffer, %object
	.size	MacCommandsBuffer, 128
MacCommandsBuffer:
	.space	128
	.section	.bss.MacCommandsBufferIndex,"aw",%nobits
	.set	.LANCHOR13,. + 0
	.type	MacCommandsBufferIndex, %object
	.size	MacCommandsBufferIndex, 1
MacCommandsBufferIndex:
	.space	1
	.section	.bss.MacCommandsBufferToRepeat,"aw",%nobits
	.set	.LANCHOR57,. + 0
	.type	MacCommandsBufferToRepeat, %object
	.size	MacCommandsBufferToRepeat, 128
MacCommandsBufferToRepeat:
	.space	128
	.section	.bss.MacCommandsBufferToRepeatIndex,"aw",%nobits
	.set	.LANCHOR14,. + 0
	.type	MacCommandsBufferToRepeatIndex, %object
	.size	MacCommandsBufferToRepeatIndex, 1
MacCommandsBufferToRepeatIndex:
	.space	1
	.section	.bss.MacCommandsInNextTx,"aw",%nobits
	.set	.LANCHOR19,. + 0
	.type	MacCommandsInNextTx, %object
	.size	MacCommandsInNextTx, 1
MacCommandsInNextTx:
	.space	1
	.section	.bss.MacStateCheckTimer,"aw",%nobits
	.align	2
	.set	.LANCHOR27,. + 0
	.type	MacStateCheckTimer, %object
	.size	MacStateCheckTimer, 20
MacStateCheckTimer:
	.space	20
	.section	.bss.MaxDCycle,"aw",%nobits
	.set	.LANCHOR11,. + 0
	.type	MaxDCycle, %object
	.size	MaxDCycle, 1
MaxDCycle:
	.space	1
	.section	.bss.McpsConfirm,"aw",%nobits
	.align	2
	.set	.LANCHOR34,. + 0
	.type	McpsConfirm, %object
	.size	McpsConfirm, 20
McpsConfirm:
	.space	20
	.section	.bss.McpsIndication,"aw",%nobits
	.align	2
	.set	.LANCHOR31,. + 0
	.type	McpsIndication, %object
	.size	McpsIndication, 24
McpsIndication:
	.space	24
	.section	.bss.MlmeConfirm,"aw",%nobits
	.align	2
	.set	.LANCHOR35,. + 0
	.type	MlmeConfirm, %object
	.size	MlmeConfirm, 12
MlmeConfirm:
	.space	12
	.section	.bss.MlmeIndication,"aw",%nobits
	.set	.LANCHOR42,. + 0
	.type	MlmeIndication, %object
	.size	MlmeIndication, 1
MlmeIndication:
	.space	1
	.section	.bss.MulticastChannels,"aw",%nobits
	.align	2
	.set	.LANCHOR20,. + 0
	.type	MulticastChannels, %object
	.size	MulticastChannels, 4
MulticastChannels:
	.space	4
	.section	.bss.NodeAckRequested,"aw",%nobits
	.set	.LANCHOR17,. + 0
	.type	NodeAckRequested, %object
	.size	NodeAckRequested, 1
NodeAckRequested:
	.space	1
	.section	.bss.PublicNetwork,"aw",%nobits
	.set	.LANCHOR66,. + 0
	.type	PublicNetwork, %object
	.size	PublicNetwork, 1
PublicNetwork:
	.space	1
	.section	.bss.RadioEvents,"aw",%nobits
	.align	2
	.set	.LANCHOR65,. + 0
	.type	RadioEvents, %object
	.size	RadioEvents, 28
RadioEvents:
	.space	28
	.section	.bss.RepeaterSupport,"aw",%nobits
	.set	.LANCHOR1,. + 0
	.type	RepeaterSupport, %object
	.size	RepeaterSupport, 1
RepeaterSupport:
	.space	1
	.section	.bss.RxSlot,"aw",%nobits
	.set	.LANCHOR29,. + 0
	.type	RxSlot, %object
	.size	RxSlot, 1
RxSlot:
	.space	1
	.section	.bss.RxWindow1Config,"aw",%nobits
	.align	2
	.set	.LANCHOR30,. + 0
	.type	RxWindow1Config, %object
	.size	RxWindow1Config, 20
RxWindow1Config:
	.space	20
	.section	.bss.RxWindow1Delay,"aw",%nobits
	.align	2
	.set	.LANCHOR38,. + 0
	.type	RxWindow1Delay, %object
	.size	RxWindow1Delay, 4
RxWindow1Delay:
	.space	4
	.section	.bss.RxWindow2Config,"aw",%nobits
	.align	2
	.set	.LANCHOR33,. + 0
	.type	RxWindow2Config, %object
	.size	RxWindow2Config, 20
RxWindow2Config:
	.space	20
	.section	.bss.RxWindow2Delay,"aw",%nobits
	.align	2
	.set	.LANCHOR37,. + 0
	.type	RxWindow2Delay, %object
	.size	RxWindow2Delay, 4
RxWindow2Delay:
	.space	4
	.section	.bss.RxWindowTimer1,"aw",%nobits
	.align	2
	.set	.LANCHOR28,. + 0
	.type	RxWindowTimer1, %object
	.size	RxWindowTimer1, 20
RxWindowTimer1:
	.space	20
	.section	.bss.RxWindowTimer2,"aw",%nobits
	.align	2
	.set	.LANCHOR32,. + 0
	.type	RxWindowTimer2, %object
	.size	RxWindowTimer2, 20
RxWindowTimer2:
	.space	20
	.section	.bss.SrvAckRequested,"aw",%nobits
	.set	.LANCHOR18,. + 0
	.type	SrvAckRequested, %object
	.size	SrvAckRequested, 1
SrvAckRequested:
	.space	1
	.section	.bss.TxDelayedTimer,"aw",%nobits
	.align	2
	.set	.LANCHOR62,. + 0
	.type	TxDelayedTimer, %object
	.size	TxDelayedTimer, 20
TxDelayedTimer:
	.space	20
	.section	.bss.TxTimeOnAir,"aw",%nobits
	.align	2
	.set	.LANCHOR58,. + 0
	.type	TxTimeOnAir, %object
	.size	TxTimeOnAir, 4
TxTimeOnAir:
	.space	4
	.section	.bss.UpLinkCounter,"aw",%nobits
	.align	2
	.set	.LANCHOR4,. + 0
	.type	UpLinkCounter, %object
	.size	UpLinkCounter, 4
UpLinkCounter:
	.space	4
	.section	.data.AckTimeoutRetries,"aw",%progbits
	.set	.LANCHOR8,. + 0
	.type	AckTimeoutRetries, %object
	.size	AckTimeoutRetries, 1
AckTimeoutRetries:
	.byte	1
	.section	.data.AckTimeoutRetriesCounter,"aw",%progbits
	.set	.LANCHOR9,. + 0
	.type	AckTimeoutRetriesCounter, %object
	.size	AckTimeoutRetriesCounter, 1
AckTimeoutRetriesCounter:
	.byte	1
	.section	.data.IsRxWindowsEnabled,"aw",%progbits
	.set	.LANCHOR15,. + 0
	.type	IsRxWindowsEnabled, %object
	.size	IsRxWindowsEnabled, 1
IsRxWindowsEnabled:
	.byte	1
	.section	.rodata.LoRaMacMaxEirpTable,"a",%progbits
	.set	.LANCHOR44,. + 0
	.type	LoRaMacMaxEirpTable, %object
	.size	LoRaMacMaxEirpTable, 16
LoRaMacMaxEirpTable:
	.byte	8
	.byte	10
	.byte	12
	.byte	13
	.byte	14
	.byte	16
	.byte	18
	.byte	20
	.byte	21
	.byte	24
	.byte	26
	.byte	27
	.byte	29
	.byte	30
	.byte	33
	.byte	36
	.section	.debug_frame,"",%progbits
.Lframe0:
	.4byte	.LECIE0-.LSCIE0
.LSCIE0:
	.4byte	0xffffffff
	.byte	0x3
	.ascii	"\000"
	.uleb128 0x1
	.sleb128 -4
	.uleb128 0xe
	.byte	0xc
	.uleb128 0xd
	.uleb128 0
	.align	2
.LECIE0:
.LSFDE0:
	.4byte	.LEFDE0-.LASFDE0
.LASFDE0:
	.4byte	.Lframe0
	.4byte	.LFB13
	.4byte	.LFE13-.LFB13
	.byte	0x4
	.4byte	.LCFI0-.LFB13
	.byte	0xe
	.uleb128 0x18
	.byte	0x84
	.uleb128 0x3
	.byte	0x85
	.uleb128 0x2
	.byte	0x8e
	.uleb128 0x1
	.byte	0x4
	.4byte	.LCFI1-.LCFI0
	.byte	0xa
	.byte	0xe
	.uleb128 0xc
	.byte	0x4
	.4byte	.LCFI2-.LCFI1
	.byte	0xb
	.align	2
.LEFDE0:
.LSFDE2:
	.4byte	.LEFDE2-.LASFDE2
.LASFDE2:
	.4byte	.Lframe0
	.4byte	.LFB22
	.4byte	.LFE22-.LFB22
	.byte	0x4
	.4byte	.LCFI3-.LFB22
	.byte	0xe
	.uleb128 0x10
	.byte	0x83
	.uleb128 0x4
	.byte	0x84
	.uleb128 0x3
	.byte	0x85
	.uleb128 0x2
	.byte	0x8e
	.uleb128 0x1
	.align	2
.LEFDE2:
.LSFDE4:
	.4byte	.LEFDE4-.LASFDE4
.LASFDE4:
	.4byte	.Lframe0
	.4byte	.LFB11
	.4byte	.LFE11-.LFB11
	.byte	0x4
	.4byte	.LCFI4-.LFB11
	.byte	0xe
	.uleb128 0x8
	.byte	0x83
	.uleb128 0x2
	.byte	0x8e
	.uleb128 0x1
	.align	2
.LEFDE4:
.LSFDE6:
	.4byte	.LEFDE6-.LASFDE6
.LASFDE6:
	.4byte	.Lframe0
	.4byte	.LFB1
	.4byte	.LFE1-.LFB1
	.byte	0x4
	.4byte	.LCFI5-.LFB1
	.byte	0xe
	.uleb128 0x8
	.byte	0x83
	.uleb128 0x2
	.byte	0x8e
	.uleb128 0x1
	.byte	0x4
	.4byte	.LCFI6-.LCFI5
	.byte	0xce
	.byte	0xc3
	.byte	0xe
	.uleb128 0
	.align	2
.LEFDE6:
.LSFDE8:
	.4byte	.LEFDE8-.LASFDE8
.LASFDE8:
	.4byte	.Lframe0
	.4byte	.LFB8
	.4byte	.LFE8-.LFB8
	.byte	0x4
	.4byte	.LCFI7-.LFB8
	.byte	0xe
	.uleb128 0x10
	.byte	0x84
	.uleb128 0x4
	.byte	0x85
	.uleb128 0x3
	.byte	0x86
	.uleb128 0x2
	.byte	0x8e
	.uleb128 0x1
	.byte	0x4
	.4byte	.LCFI8-.LCFI7
	.byte	0xa
	.byte	0xce
	.byte	0xc6
	.byte	0xc5
	.byte	0xc4
	.byte	0xe
	.uleb128 0
	.byte	0x4
	.4byte	.LCFI9-.LCFI8
	.byte	0xb
	.align	2
.LEFDE8:
.LSFDE10:
	.4byte	.LEFDE10-.LASFDE10
.LASFDE10:
	.4byte	.Lframe0
	.4byte	.LFB9
	.4byte	.LFE9-.LFB9
	.byte	0x4
	.4byte	.LCFI10-.LFB9
	.byte	0xe
	.uleb128 0x10
	.byte	0x83
	.uleb128 0x4
	.byte	0x84
	.uleb128 0x3
	.byte	0x85
	.uleb128 0x2
	.byte	0x8e
	.uleb128 0x1
	.align	2
.LEFDE10:
.LSFDE12:
	.4byte	.LEFDE12-.LASFDE12
.LASFDE12:
	.4byte	.Lframe0
	.4byte	.LFB24
	.4byte	.LFE24-.LFB24
	.byte	0x4
	.4byte	.LCFI11-.LFB24
	.byte	0xe
	.uleb128 0x8
	.byte	0x83
	.uleb128 0x2
	.byte	0x8e
	.uleb128 0x1
	.align	2
.LEFDE12:
.LSFDE14:
	.4byte	.LEFDE14-.LASFDE14
.LASFDE14:
	.4byte	.Lframe0
	.4byte	.LFB5
	.4byte	.LFE5-.LFB5
	.byte	0x4
	.4byte	.LCFI12-.LFB5
	.byte	0xe
	.uleb128 0x8
	.byte	0x84
	.uleb128 0x2
	.byte	0x8e
	.uleb128 0x1
	.byte	0x4
	.4byte	.LCFI13-.LCFI12
	.byte	0xce
	.byte	0xc4
	.byte	0xe
	.uleb128 0
	.align	2
.LEFDE14:
.LSFDE16:
	.4byte	.LEFDE16-.LASFDE16
.LASFDE16:
	.4byte	.Lframe0
	.4byte	.LFB3
	.4byte	.LFE3-.LFB3
	.byte	0x4
	.4byte	.LCFI14-.LFB3
	.byte	0xe
	.uleb128 0x8
	.byte	0x83
	.uleb128 0x2
	.byte	0x8e
	.uleb128 0x1
	.align	2
.LEFDE16:
.LSFDE18:
	.4byte	.LEFDE18-.LASFDE18
.LASFDE18:
	.4byte	.Lframe0
	.4byte	.LFB4
	.4byte	.LFE4-.LFB4
	.byte	0x4
	.4byte	.LCFI15-.LFB4
	.byte	0xe
	.uleb128 0x8
	.byte	0x84
	.uleb128 0x2
	.byte	0x8e
	.uleb128 0x1
	.byte	0x4
	.4byte	.LCFI16-.LCFI15
	.byte	0xce
	.byte	0xc4
	.byte	0xe
	.uleb128 0
	.align	2
.LEFDE18:
.LSFDE20:
	.4byte	.LEFDE20-.LASFDE20
.LASFDE20:
	.4byte	.Lframe0
	.4byte	.LFB0
	.4byte	.LFE0-.LFB0
	.byte	0x4
	.4byte	.LCFI17-.LFB0
	.byte	0xe
	.uleb128 0x28
	.byte	0x84
	.uleb128 0x6
	.byte	0x85
	.uleb128 0x5
	.byte	0x86
	.uleb128 0x4
	.byte	0x87
	.uleb128 0x3
	.byte	0x88
	.uleb128 0x2
	.byte	0x8e
	.uleb128 0x1
	.byte	0x4
	.4byte	.LCFI18-.LCFI17
	.byte	0xa
	.byte	0xe
	.uleb128 0x18
	.byte	0x4
	.4byte	.LCFI19-.LCFI18
	.byte	0xb
	.align	2
.LEFDE20:
.LSFDE22:
	.4byte	.LEFDE22-.LASFDE22
.LASFDE22:
	.4byte	.Lframe0
	.4byte	.LFB18
	.4byte	.LFE18-.LFB18
	.byte	0x4
	.4byte	.LCFI20-.LFB18
	.byte	0xe
	.uleb128 0x24
	.byte	0x84
	.uleb128 0x9
	.byte	0x85
	.uleb128 0x8
	.byte	0x86
	.uleb128 0x7
	.byte	0x87
	.uleb128 0x6
	.byte	0x88
	.uleb128 0x5
	.byte	0x89
	.uleb128 0x4
	.byte	0x8a
	.uleb128 0x3
	.byte	0x8b
	.uleb128 0x2
	.byte	0x8e
	.uleb128 0x1
	.byte	0x4
	.4byte	.LCFI21-.LCFI20
	.byte	0xe
	.uleb128 0x58
	.byte	0x4
	.4byte	.LCFI22-.LCFI21
	.byte	0xa
	.byte	0xe
	.uleb128 0x24
	.byte	0x4
	.4byte	.LCFI23-.LCFI22
	.byte	0xb
	.align	2
.LEFDE22:
.LSFDE24:
	.4byte	.LEFDE24-.LASFDE24
.LASFDE24:
	.4byte	.Lframe0
	.4byte	.LFB2
	.4byte	.LFE2-.LFB2
	.byte	0x4
	.4byte	.LCFI24-.LFB2
	.byte	0xe
	.uleb128 0x24
	.byte	0x84
	.uleb128 0x9
	.byte	0x85
	.uleb128 0x8
	.byte	0x86
	.uleb128 0x7
	.byte	0x87
	.uleb128 0x6
	.byte	0x88
	.uleb128 0x5
	.byte	0x89
	.uleb128 0x4
	.byte	0x8a
	.uleb128 0x3
	.byte	0x8b
	.uleb128 0x2
	.byte	0x8e
	.uleb128 0x1
	.byte	0x4
	.4byte	.LCFI25-.LCFI24
	.byte	0xe
	.uleb128 0x68
	.byte	0x4
	.4byte	.LCFI26-.LCFI25
	.byte	0xa
	.byte	0xe
	.uleb128 0x24
	.byte	0x4
	.4byte	.LCFI27-.LCFI26
	.byte	0xb
	.align	2
.LEFDE24:
.LSFDE26:
	.4byte	.LEFDE26-.LASFDE26
.LASFDE26:
	.4byte	.Lframe0
	.4byte	.LFB25
	.4byte	.LFE25-.LFB25
	.byte	0x4
	.4byte	.LCFI28-.LFB25
	.byte	0xe
	.uleb128 0x24
	.byte	0x84
	.uleb128 0x9
	.byte	0x85
	.uleb128 0x8
	.byte	0x86
	.uleb128 0x7
	.byte	0x87
	.uleb128 0x6
	.byte	0x88
	.uleb128 0x5
	.byte	0x89
	.uleb128 0x4
	.byte	0x8a
	.uleb128 0x3
	.byte	0x8b
	.uleb128 0x2
	.byte	0x8e
	.uleb128 0x1
	.byte	0x4
	.4byte	.LCFI29-.LCFI28
	.byte	0xe
	.uleb128 0x58
	.byte	0x4
	.4byte	.LCFI30-.LCFI29
	.byte	0xa
	.byte	0xe
	.uleb128 0x24
	.byte	0x4
	.4byte	.LCFI31-.LCFI30
	.byte	0xb
	.align	2
.LEFDE26:
.LSFDE28:
	.4byte	.LEFDE28-.LASFDE28
.LASFDE28:
	.4byte	.Lframe0
	.4byte	.LFB26
	.4byte	.LFE26-.LFB26
	.byte	0x4
	.4byte	.LCFI32-.LFB26
	.byte	0xe
	.uleb128 0x18
	.byte	0x84
	.uleb128 0x6
	.byte	0x85
	.uleb128 0x5
	.byte	0x86
	.uleb128 0x4
	.byte	0x87
	.uleb128 0x3
	.byte	0x88
	.uleb128 0x2
	.byte	0x8e
	.uleb128 0x1
	.byte	0x4
	.4byte	.LCFI33-.LCFI32
	.byte	0xe
	.uleb128 0x30
	.byte	0x4
	.4byte	.LCFI34-.LCFI33
	.byte	0xe
	.uleb128 0x18
	.align	2
.LEFDE28:
.LSFDE30:
	.4byte	.LEFDE30-.LASFDE30
.LASFDE30:
	.4byte	.Lframe0
	.4byte	.LFB20
	.4byte	.LFE20-.LFB20
	.byte	0x4
	.4byte	.LCFI35-.LFB20
	.byte	0xe
	.uleb128 0x1c
	.byte	0x84
	.uleb128 0x7
	.byte	0x85
	.uleb128 0x6
	.byte	0x86
	.uleb128 0x5
	.byte	0x87
	.uleb128 0x4
	.byte	0x88
	.uleb128 0x3
	.byte	0x89
	.uleb128 0x2
	.byte	0x8e
	.uleb128 0x1
	.byte	0x4
	.4byte	.LCFI36-.LCFI35
	.byte	0xe
	.uleb128 0x38
	.byte	0x4
	.4byte	.LCFI37-.LCFI36
	.byte	0xa
	.byte	0xe
	.uleb128 0x1c
	.byte	0x4
	.4byte	.LCFI38-.LCFI37
	.byte	0xb
	.align	2
.LEFDE30:
.LSFDE32:
	.4byte	.LEFDE32-.LASFDE32
.LASFDE32:
	.4byte	.Lframe0
	.4byte	.LFB19
	.4byte	.LFE19-.LFB19
	.byte	0x4
	.4byte	.LCFI39-.LFB19
	.byte	0xe
	.uleb128 0xc
	.byte	0x84
	.uleb128 0x3
	.byte	0x85
	.uleb128 0x2
	.byte	0x8e
	.uleb128 0x1
	.byte	0x4
	.4byte	.LCFI40-.LCFI39
	.byte	0xe
	.uleb128 0x20
	.byte	0x4
	.4byte	.LCFI41-.LCFI40
	.byte	0xe
	.uleb128 0xc
	.align	2
.LEFDE32:
.LSFDE34:
	.4byte	.LEFDE34-.LASFDE34
.LASFDE34:
	.4byte	.Lframe0
	.4byte	.LFB7
	.4byte	.LFE7-.LFB7
	.byte	0x4
	.4byte	.LCFI42-.LFB7
	.byte	0xe
	.uleb128 0x8
	.byte	0x83
	.uleb128 0x2
	.byte	0x8e
	.uleb128 0x1
	.byte	0x4
	.4byte	.LCFI43-.LCFI42
	.byte	0xce
	.byte	0xc3
	.byte	0xe
	.uleb128 0
	.align	2
.LEFDE34:
.LSFDE36:
	.4byte	.LEFDE36-.LASFDE36
.LASFDE36:
	.4byte	.Lframe0
	.4byte	.LFB6
	.4byte	.LFE6-.LFB6
	.byte	0x4
	.4byte	.LCFI44-.LFB6
	.byte	0xe
	.uleb128 0x20
	.byte	0x84
	.uleb128 0x6
	.byte	0x85
	.uleb128 0x5
	.byte	0x86
	.uleb128 0x4
	.byte	0x87
	.uleb128 0x3
	.byte	0x88
	.uleb128 0x2
	.byte	0x8e
	.uleb128 0x1
	.byte	0x4
	.4byte	.LCFI45-.LCFI44
	.byte	0xa
	.byte	0xe
	.uleb128 0x18
	.byte	0x4
	.4byte	.LCFI46-.LCFI45
	.byte	0xb
	.align	2
.LEFDE36:
.LSFDE38:
	.4byte	.LEFDE38-.LASFDE38
.LASFDE38:
	.4byte	.Lframe0
	.4byte	.LFB27
	.4byte	.LFE27-.LFB27
	.byte	0x4
	.4byte	.LCFI47-.LFB27
	.byte	0xe
	.uleb128 0x18
	.byte	0x84
	.uleb128 0x2
	.byte	0x8e
	.uleb128 0x1
	.byte	0x4
	.4byte	.LCFI48-.LCFI47
	.byte	0xe
	.uleb128 0x8
	.align	2
.LEFDE38:
.LSFDE40:
	.4byte	.LEFDE40-.LASFDE40
.LASFDE40:
	.4byte	.Lframe0
	.4byte	.LFB28
	.4byte	.LFE28-.LFB28
	.byte	0x4
	.4byte	.LCFI49-.LFB28
	.byte	0xe
	.uleb128 0x8
	.byte	0x84
	.uleb128 0x2
	.byte	0x8e
	.uleb128 0x1
	.align	2
.LEFDE40:
.LSFDE42:
	.4byte	.LEFDE42-.LASFDE42
.LASFDE42:
	.4byte	.Lframe0
	.4byte	.LFB29
	.4byte	.LFE29-.LFB29
	.byte	0x4
	.4byte	.LCFI50-.LFB29
	.byte	0xe
	.uleb128 0x20
	.byte	0x84
	.uleb128 0x6
	.byte	0x85
	.uleb128 0x5
	.byte	0x86
	.uleb128 0x4
	.byte	0x87
	.uleb128 0x3
	.byte	0x88
	.uleb128 0x2
	.byte	0x8e
	.uleb128 0x1
	.byte	0x4
	.4byte	.LCFI51-.LCFI50
	.byte	0xa
	.byte	0xe
	.uleb128 0x18
	.byte	0x4
	.4byte	.LCFI52-.LCFI51
	.byte	0xb
	.align	2
.LEFDE42:
.LSFDE44:
	.4byte	.LEFDE44-.LASFDE44
.LASFDE44:
	.4byte	.Lframe0
	.4byte	.LFB30
	.4byte	.LFE30-.LFB30
	.byte	0x4
	.4byte	.LCFI53-.LFB30
	.byte	0xe
	.uleb128 0x24
	.byte	0x84
	.uleb128 0x9
	.byte	0x85
	.uleb128 0x8
	.byte	0x86
	.uleb128 0x7
	.byte	0x87
	.uleb128 0x6
	.byte	0x88
	.uleb128 0x5
	.byte	0x89
	.uleb128 0x4
	.byte	0x8a
	.uleb128 0x3
	.byte	0x8b
	.uleb128 0x2
	.byte	0x8e
	.uleb128 0x1
	.byte	0x4
	.4byte	.LCFI54-.LCFI53
	.byte	0xe
	.uleb128 0x48
	.byte	0x4
	.4byte	.LCFI55-.LCFI54
	.byte	0xa
	.byte	0xe
	.uleb128 0x24
	.byte	0x4
	.4byte	.LCFI56-.LCFI55
	.byte	0xb
	.align	2
.LEFDE44:
.LSFDE46:
	.4byte	.LEFDE46-.LASFDE46
.LASFDE46:
	.4byte	.Lframe0
	.4byte	.LFB31
	.4byte	.LFE31-.LFB31
	.byte	0x4
	.4byte	.LCFI57-.LFB31
	.byte	0xe
	.uleb128 0x10
	.byte	0x84
	.uleb128 0x2
	.byte	0x8e
	.uleb128 0x1
	.byte	0x4
	.4byte	.LCFI58-.LCFI57
	.byte	0xa
	.byte	0xe
	.uleb128 0x8
	.byte	0x4
	.4byte	.LCFI59-.LCFI58
	.byte	0xb
	.align	2
.LEFDE46:
.LSFDE48:
	.4byte	.LEFDE48-.LASFDE48
.LASFDE48:
	.4byte	.Lframe0
	.4byte	.LFB32
	.4byte	.LFE32-.LFB32
	.byte	0x4
	.4byte	.LCFI60-.LFB32
	.byte	0xe
	.uleb128 0x20
	.byte	0x84
	.uleb128 0x4
	.byte	0x85
	.uleb128 0x3
	.byte	0x86
	.uleb128 0x2
	.byte	0x8e
	.uleb128 0x1
	.byte	0x4
	.4byte	.LCFI61-.LCFI60
	.byte	0xa
	.byte	0xe
	.uleb128 0x10
	.byte	0x4
	.4byte	.LCFI62-.LCFI61
	.byte	0xb
	.align	2
.LEFDE48:
.LSFDE50:
	.4byte	.LEFDE50-.LASFDE50
.LASFDE50:
	.4byte	.Lframe0
	.4byte	.LFB33
	.4byte	.LFE33-.LFB33
	.byte	0x4
	.4byte	.LCFI63-.LFB33
	.byte	0xe
	.uleb128 0x8
	.byte	0x84
	.uleb128 0x2
	.byte	0x8e
	.uleb128 0x1
	.byte	0x4
	.4byte	.LCFI64-.LCFI63
	.byte	0xe
	.uleb128 0x20
	.byte	0x4
	.4byte	.LCFI65-.LCFI64
	.byte	0xa
	.byte	0xe
	.uleb128 0x8
	.byte	0x4
	.4byte	.LCFI66-.LCFI65
	.byte	0xb
	.align	2
.LEFDE50:
.LSFDE52:
	.4byte	.LEFDE52-.LASFDE52
.LASFDE52:
	.4byte	.Lframe0
	.4byte	.LFB34
	.4byte	.LFE34-.LFB34
	.byte	0x4
	.4byte	.LCFI67-.LFB34
	.byte	0xe
	.uleb128 0x10
	.byte	0x8e
	.uleb128 0x1
	.byte	0x4
	.4byte	.LCFI68-.LCFI67
	.byte	0xa
	.byte	0xe
	.uleb128 0x4
	.byte	0x4
	.4byte	.LCFI69-.LCFI68
	.byte	0xb
	.align	2
.LEFDE52:
.LSFDE54:
	.4byte	.LEFDE54-.LASFDE54
.LASFDE54:
	.4byte	.Lframe0
	.4byte	.LFB35
	.4byte	.LFE35-.LFB35
	.align	2
.LEFDE54:
.LSFDE56:
	.4byte	.LEFDE56-.LASFDE56
.LASFDE56:
	.4byte	.Lframe0
	.4byte	.LFB36
	.4byte	.LFE36-.LFB36
	.align	2
.LEFDE56:
.LSFDE58:
	.4byte	.LEFDE58-.LASFDE58
.LASFDE58:
	.4byte	.Lframe0
	.4byte	.LFB37
	.4byte	.LFE37-.LFB37
	.byte	0x4
	.4byte	.LCFI70-.LFB37
	.byte	0xe
	.uleb128 0x18
	.byte	0x84
	.uleb128 0x4
	.byte	0x85
	.uleb128 0x3
	.byte	0x86
	.uleb128 0x2
	.byte	0x8e
	.uleb128 0x1
	.byte	0x4
	.4byte	.LCFI71-.LCFI70
	.byte	0xa
	.byte	0xe
	.uleb128 0x10
	.byte	0x4
	.4byte	.LCFI72-.LCFI71
	.byte	0xb
	.align	2
.LEFDE58:
.LSFDE60:
	.4byte	.LEFDE60-.LASFDE60
.LASFDE60:
	.4byte	.Lframe0
	.4byte	.LFB38
	.4byte	.LFE38-.LFB38
	.byte	0x4
	.4byte	.LCFI73-.LFB38
	.byte	0xe
	.uleb128 0x24
	.byte	0x84
	.uleb128 0x9
	.byte	0x85
	.uleb128 0x8
	.byte	0x86
	.uleb128 0x7
	.byte	0x87
	.uleb128 0x6
	.byte	0x88
	.uleb128 0x5
	.byte	0x89
	.uleb128 0x4
	.byte	0x8a
	.uleb128 0x3
	.byte	0x8b
	.uleb128 0x2
	.byte	0x8e
	.uleb128 0x1
	.byte	0x4
	.4byte	.LCFI74-.LCFI73
	.byte	0xe
	.uleb128 0x40
	.byte	0x4
	.4byte	.LCFI75-.LCFI74
	.byte	0xa
	.byte	0xe
	.uleb128 0x24
	.byte	0x4
	.4byte	.LCFI76-.LCFI75
	.byte	0xb
	.align	2
.LEFDE60:
.LSFDE62:
	.4byte	.LEFDE62-.LASFDE62
.LASFDE62:
	.4byte	.Lframe0
	.4byte	.LFB39
	.4byte	.LFE39-.LFB39
	.align	2
.LEFDE62:
.LSFDE64:
	.4byte	.LEFDE64-.LASFDE64
.LASFDE64:
	.4byte	.Lframe0
	.4byte	.LFB40
	.4byte	.LFE40-.LFB40
	.align	2
.LEFDE64:
.LSFDE66:
	.4byte	.LEFDE66-.LASFDE66
.LASFDE66:
	.4byte	.Lframe0
	.4byte	.LFB41
	.4byte	.LFE41-.LFB41
	.byte	0x4
	.4byte	.LCFI77-.LFB41
	.byte	0xe
	.uleb128 0x10
	.byte	0x84
	.uleb128 0x2
	.byte	0x8e
	.uleb128 0x1
	.byte	0x4
	.4byte	.LCFI78-.LCFI77
	.byte	0xe
	.uleb128 0x8
	.align	2
.LEFDE66:
.LSFDE68:
	.4byte	.LEFDE68-.LASFDE68
.LASFDE68:
	.4byte	.Lframe0
	.4byte	.LFB42
	.4byte	.LFE42-.LFB42
	.align	2
.LEFDE68:
	.text
.Letext0:
	.file 2 "/Applications/SEGGER Embedded Studio for ARM 3.52a/include/stdint.h"
	.file 3 "/Applications/SEGGER Embedded Studio for ARM 3.52a/include/__crossworks.h"
	.file 4 "/Users/russ/nRF5_SDK_15.2.0_9412b96/examples/ble_peripheral/flightSketch/lora/system/timer.h"
	.file 5 "/Users/russ/nRF5_SDK_15.2.0_9412b96/examples/ble_peripheral/flightSketch/lora/radio/radio.h"
	.file 6 "/Users/russ/nRF5_SDK_15.2.0_9412b96/examples/ble_peripheral/flightSketch/lora/mac/LoRaMac.h"
	.file 7 "/Users/russ/nRF5_SDK_15.2.0_9412b96/examples/ble_peripheral/flightSketch/lora/mac/region/Region.h"
	.file 8 "/Users/russ/nRF5_SDK_15.2.0_9412b96/examples/ble_peripheral/flightSketch/lora/boards/mcu/nrf52832/utilities.h"
	.file 9 "/Users/russ/nRF5_SDK_15.2.0_9412b96/examples/ble_peripheral/flightSketch/lora/mac/LoRaMacCrypto.h"